ARM GAS  C:\Users\Totos\AppData\Local\Temp\cczdlzAf.s 			page 1


   1              		.syntax unified
   2              		.cpu cortex-m3
   3              		.fpu softvfp
   4              		.eabi_attribute 20, 1
   5              		.eabi_attribute 21, 1
   6              		.eabi_attribute 23, 3
   7              		.eabi_attribute 24, 1
   8              		.eabi_attribute 25, 1
   9              		.eabi_attribute 26, 1
  10              		.eabi_attribute 30, 1
  11              		.eabi_attribute 34, 1
  12              		.eabi_attribute 18, 4
  13              		.thumb
  14              		.syntax unified
  15              		.file	"main.c"
  16              		.text
  17              	.Ltext0:
  18              		.cfi_sections	.debug_frame
  19              		.section	.text.echo_isr,"ax",%progbits
  20              		.align	2
  21              		.global	echo_isr
  22              		.thumb
  23              		.thumb_func
  24              		.type	echo_isr, %function
  25              	echo_isr:
  26              	.LFB64:
  27              		.file 1 "main.c"
   1:main.c        **** /* ========================================
   2:main.c        ****  * HC-SR04 test program for CY8CKIT-059
   3:main.c        ****  * For this appliation, VDD must be set to 5V
   4:main.c        ****  * ========================================
   5:main.c        **** */
   6:main.c        **** 
   7:main.c        **** #include "project.h"
   8:main.c        **** #include <stdio.h>
   9:main.c        **** 
  10:main.c        **** 
  11:main.c        **** // Reference
  12:main.c        **** /* https://keisan.casio.jp/exec/system/1231998943 */
  13:main.c        **** #define MACH    343.4    /* Mach 1.0 at 20.0 */
  14:main.c        **** // Tester
  15:main.c        **** 
  16:main.c        **** volatile uint16_t duration = 0 ;
  17:main.c        **** volatile int      echo_flag = 0 ;
  18:main.c        **** 
  19:main.c        **** char str[128] ; /* print buffer */
  20:main.c        **** 
  21:main.c        **** CY_ISR(echo_isr)
  22:main.c        **** {
  28              		.loc 1 22 0
  29              		.cfi_startproc
  30              		@ args = 0, pretend = 0, frame = 0
  31              		@ frame_needed = 0, uses_anonymous_args = 0
  32 0000 08B5     		push	{r3, lr}
  33              		.cfi_def_cfa_offset 8
  34              		.cfi_offset 3, -8
  35              		.cfi_offset 14, -4
ARM GAS  C:\Users\Totos\AppData\Local\Temp\cczdlzAf.s 			page 2


  23:main.c        ****     isr_echo_int_ClearPending() ;
  36              		.loc 1 23 0
  37 0002 FFF7FEFF 		bl	isr_echo_int_ClearPending
  38              	.LVL0:
  24:main.c        ****     isr_echo_int_Disable() ;
  39              		.loc 1 24 0
  40 0006 FFF7FEFF 		bl	isr_echo_int_Disable
  41              	.LVL1:
  25:main.c        ****     duration = Counter_ReadCounter() ;
  42              		.loc 1 25 0
  43 000a FFF7FEFF 		bl	Counter_ReadCounter
  44              	.LVL2:
  45 000e 024B     		ldr	r3, .L3
  46 0010 1880     		strh	r0, [r3]	@ movhi
  26:main.c        ****     echo_flag = 1 ;
  47              		.loc 1 26 0
  48 0012 0122     		movs	r2, #1
  49 0014 5A60     		str	r2, [r3, #4]
  50 0016 08BD     		pop	{r3, pc}
  51              	.L4:
  52              		.align	2
  53              	.L3:
  54 0018 00000000 		.word	.LANCHOR0
  55              		.cfi_endproc
  56              	.LFE64:
  57              		.size	echo_isr, .-echo_isr
  58              		.section	.text.init_hardware,"ax",%progbits
  59              		.align	2
  60              		.global	init_hardware
  61              		.thumb
  62              		.thumb_func
  63              		.type	init_hardware, %function
  64              	init_hardware:
  65              	.LFB65:
  27:main.c        **** }
  28:main.c        **** 
  29:main.c        **** void init_hardware(void)
  30:main.c        **** {
  66              		.loc 1 30 0
  67              		.cfi_startproc
  68              		@ args = 0, pretend = 0, frame = 0
  69              		@ frame_needed = 0, uses_anonymous_args = 0
  70 0000 08B5     		push	{r3, lr}
  71              		.cfi_def_cfa_offset 8
  72              		.cfi_offset 3, -8
  73              		.cfi_offset 14, -4
  31:main.c        ****     CyGlobalIntEnable; /* Enable global interrupts. */
  74              		.loc 1 31 0
  75              		.syntax unified
  76              	@ 31 "main.c" 1
  77 0002 62B6     		CPSIE   i
  78              	@ 0 "" 2
  32:main.c        ****     Trigger_Write(0) ;
  79              		.loc 1 32 0
  80              		.thumb
  81              		.syntax unified
  82 0004 0020     		movs	r0, #0
ARM GAS  C:\Users\Totos\AppData\Local\Temp\cczdlzAf.s 			page 3


  83 0006 FFF7FEFF 		bl	Trigger_Write
  84              	.LVL3:
  33:main.c        ****     Clock_24MHz_Start() ;
  85              		.loc 1 33 0
  86 000a FFF7FEFF 		bl	Clock_24MHz_Start
  87              	.LVL4:
  34:main.c        ****     UART_Start() ;
  88              		.loc 1 34 0
  89 000e FFF7FEFF 		bl	UART_Start
  90              	.LVL5:
  35:main.c        ****     isr_echo_int_ClearPending() ;
  91              		.loc 1 35 0
  92 0012 FFF7FEFF 		bl	isr_echo_int_ClearPending
  93              	.LVL6:
  36:main.c        ****     isr_echo_int_StartEx(echo_isr) ;
  94              		.loc 1 36 0
  95 0016 0348     		ldr	r0, .L7
  96 0018 FFF7FEFF 		bl	isr_echo_int_StartEx
  97              	.LVL7:
  37:main.c        ****     Counter_Init() ;
  98              		.loc 1 37 0
  99 001c FFF7FEFF 		bl	Counter_Init
 100              	.LVL8:
 101 0020 08BD     		pop	{r3, pc}
 102              	.L8:
 103 0022 00BF     		.align	2
 104              	.L7:
 105 0024 00000000 		.word	echo_isr
 106              		.cfi_endproc
 107              	.LFE65:
 108              		.size	init_hardware, .-init_hardware
 109              		.section	.text.pulse_trigger,"ax",%progbits
 110              		.align	2
 111              		.global	pulse_trigger
 112              		.thumb
 113              		.thumb_func
 114              		.type	pulse_trigger, %function
 115              	pulse_trigger:
 116              	.LFB66:
  38:main.c        **** }
  39:main.c        **** 
  40:main.c        **** /**
  41:main.c        ****  * pulse_trigger
  42:main.c        ****  * Generate 10us high pulse from trigger pin
  43:main.c        ****  */
  44:main.c        **** void pulse_trigger(void)
  45:main.c        **** {
 117              		.loc 1 45 0
 118              		.cfi_startproc
 119              		@ args = 0, pretend = 0, frame = 0
 120              		@ frame_needed = 0, uses_anonymous_args = 0
 121 0000 08B5     		push	{r3, lr}
 122              		.cfi_def_cfa_offset 8
 123              		.cfi_offset 3, -8
 124              		.cfi_offset 14, -4
  46:main.c        ****     Counter_Reset_Write(1) ; // reset counter
 125              		.loc 1 46 0
ARM GAS  C:\Users\Totos\AppData\Local\Temp\cczdlzAf.s 			page 4


 126 0002 0120     		movs	r0, #1
 127 0004 FFF7FEFF 		bl	Counter_Reset_Write
 128              	.LVL9:
  47:main.c        ****     CyDelayUs(10) ;
 129              		.loc 1 47 0
 130 0008 0A20     		movs	r0, #10
 131 000a FFF7FEFF 		bl	CyDelayUs
 132              	.LVL10:
  48:main.c        ****     Counter_Reset_Write(0) ; // release reset counter
 133              		.loc 1 48 0
 134 000e 0020     		movs	r0, #0
 135 0010 FFF7FEFF 		bl	Counter_Reset_Write
 136              	.LVL11:
  49:main.c        **** 
  50:main.c        ****     isr_echo_int_ClearPending() ;
 137              		.loc 1 50 0
 138 0014 FFF7FEFF 		bl	isr_echo_int_ClearPending
 139              	.LVL12:
  51:main.c        ****     isr_echo_int_Enable() ;
 140              		.loc 1 51 0
 141 0018 FFF7FEFF 		bl	isr_echo_int_Enable
 142              	.LVL13:
  52:main.c        ****     
  53:main.c        ****     Trigger_Write(1) ;  // trigger pulse HIGH
 143              		.loc 1 53 0
 144 001c 0120     		movs	r0, #1
 145 001e FFF7FEFF 		bl	Trigger_Write
 146              	.LVL14:
  54:main.c        ****     CyDelayUs(10) ;
 147              		.loc 1 54 0
 148 0022 0A20     		movs	r0, #10
 149 0024 FFF7FEFF 		bl	CyDelayUs
 150              	.LVL15:
  55:main.c        ****     Trigger_Write(0) ; // trigger pulse LOW
 151              		.loc 1 55 0
 152 0028 0020     		movs	r0, #0
 153 002a FFF7FEFF 		bl	Trigger_Write
 154              	.LVL16:
  56:main.c        ****     
  57:main.c        ****     Counter_Enable() ;
 155              		.loc 1 57 0
 156 002e FFF7FEFF 		bl	Counter_Enable
 157              	.LVL17:
 158 0032 08BD     		pop	{r3, pc}
 159              		.cfi_endproc
 160              	.LFE66:
 161              		.size	pulse_trigger, .-pulse_trigger
 162              		.global	__aeabi_ui2d
 163              		.global	__aeabi_dmul
 164              		.global	__aeabi_ddiv
 165              		.global	__aeabi_d2iz
 166              		.section	.text.print_value,"ax",%progbits
 167              		.align	2
 168              		.global	print_value
 169              		.thumb
 170              		.thumb_func
 171              		.type	print_value, %function
ARM GAS  C:\Users\Totos\AppData\Local\Temp\cczdlzAf.s 			page 5


 172              	print_value:
 173              	.LFB67:
  58:main.c        **** }
  59:main.c        **** 
  60:main.c        **** /**
  61:main.c        ****  * print_value
  62:main.c        ****  * Calculate distance from the duration
  63:main.c        ****  * Since the duration include both way of the trip
  64:main.c        ****  * to get the distance, the real duration is the half 
  65:main.c        ****  * of the duration.
  66:main.c        ****  *
  67:main.c        ****  * distance = duration * MACH(m/s) * 100(cm) / (2 * 12000000(Hz)) ;
  68:main.c        ****  *
  69:main.c        ****  */
  70:main.c        **** void print_value(uint32_t duration)
  71:main.c        **** {
 174              		.loc 1 71 0
 175              		.cfi_startproc
 176              		@ args = 0, pretend = 0, frame = 0
 177              		@ frame_needed = 0, uses_anonymous_args = 0
 178              	.LVL18:
 179 0000 F8B5     		push	{r3, r4, r5, r6, r7, lr}
 180              		.cfi_def_cfa_offset 24
 181              		.cfi_offset 3, -24
 182              		.cfi_offset 4, -20
 183              		.cfi_offset 5, -16
 184              		.cfi_offset 6, -12
 185              		.cfi_offset 7, -8
 186              		.cfi_offset 14, -4
 187              	.LVL19:
  72:main.c        ****     double distance = 0.0 ;
  73:main.c        ****     
  74:main.c        ****     distance = (double)(duration) * MACH / 240000.0 ;
 188              		.loc 1 74 0
 189 0002 FFF7FEFF 		bl	__aeabi_ui2d
 190              	.LVL20:
 191 0006 16A3     		adr	r3, .L13
 192 0008 D3E90023 		ldrd	r2, [r3]
 193 000c FFF7FEFF 		bl	__aeabi_dmul
 194              	.LVL21:
 195 0010 15A3     		adr	r3, .L13+8
 196 0012 D3E90023 		ldrd	r2, [r3]
 197 0016 FFF7FEFF 		bl	__aeabi_ddiv
 198              	.LVL22:
 199 001a 0646     		mov	r6, r0
 200 001c 0F46     		mov	r7, r1
 201              	.LVL23:
  75:main.c        ****     sprintf(str, "%d.%02dcm\r\n", (int)distance, (int)(100 * distance)%100) ;
 202              		.loc 1 75 0
 203 001e 0022     		movs	r2, #0
 204 0020 134B     		ldr	r3, .L13+16
 205 0022 FFF7FEFF 		bl	__aeabi_dmul
 206              	.LVL24:
 207 0026 FFF7FEFF 		bl	__aeabi_d2iz
 208              	.LVL25:
 209 002a 124C     		ldr	r4, .L13+20
 210 002c 84FB0034 		smull	r3, r4, r4, r0
ARM GAS  C:\Users\Totos\AppData\Local\Temp\cczdlzAf.s 			page 6


 211 0030 C317     		asrs	r3, r0, #31
 212 0032 C3EB6413 		rsb	r3, r3, r4, asr #5
 213 0036 6424     		movs	r4, #100
 214 0038 04FB1304 		mls	r4, r4, r3, r0
 215 003c 3046     		mov	r0, r6
 216 003e 3946     		mov	r1, r7
 217 0040 FFF7FEFF 		bl	__aeabi_d2iz
 218              	.LVL26:
 219 0044 0C4D     		ldr	r5, .L13+24
 220 0046 2346     		mov	r3, r4
 221 0048 0246     		mov	r2, r0
 222 004a 0C49     		ldr	r1, .L13+28
 223 004c 2846     		mov	r0, r5
 224 004e FFF7FEFF 		bl	sprintf
 225              	.LVL27:
  76:main.c        ****     UART_PutString(str) ;
 226              		.loc 1 76 0
 227 0052 2846     		mov	r0, r5
 228 0054 FFF7FEFF 		bl	UART_PutString
 229              	.LVL28:
 230 0058 F8BD     		pop	{r3, r4, r5, r6, r7, pc}
 231              	.LVL29:
 232              	.L14:
 233 005a 00BFAFF3 		.align	3
 233      0080
 234              	.L13:
 235 0060 66666666 		.word	1717986918
 236 0064 66767540 		.word	1081439846
 237 0068 00000000 		.word	0
 238 006c 004C0D41 		.word	1091390464
 239 0070 00005940 		.word	1079574528
 240 0074 1F85EB51 		.word	1374389535
 241 0078 00000000 		.word	str
 242 007c 00000000 		.word	.LC0
 243              		.cfi_endproc
 244              	.LFE67:
 245              		.size	print_value, .-print_value
 246              		.section	.text.splash,"ax",%progbits
 247              		.align	2
 248              		.global	splash
 249              		.thumb
 250              		.thumb_func
 251              		.type	splash, %function
 252              	splash:
 253              	.LFB68:
  77:main.c        **** }
  78:main.c        **** 
  79:main.c        **** void splash(void)
  80:main.c        **** {
 254              		.loc 1 80 0
 255              		.cfi_startproc
 256              		@ args = 0, pretend = 0, frame = 0
 257              		@ frame_needed = 0, uses_anonymous_args = 0
 258 0000 10B5     		push	{r4, lr}
 259              		.cfi_def_cfa_offset 8
 260              		.cfi_offset 4, -8
 261              		.cfi_offset 14, -4
ARM GAS  C:\Users\Totos\AppData\Local\Temp\cczdlzAf.s 			page 7


  81:main.c        ****     sprintf(str, "HC-SR04 Test CY8CKIT-059 (%s %s)\r\n", __DATE__, __TIME__) ;
 262              		.loc 1 81 0
 263 0002 054C     		ldr	r4, .L17
 264 0004 054B     		ldr	r3, .L17+4
 265 0006 064A     		ldr	r2, .L17+8
 266 0008 0649     		ldr	r1, .L17+12
 267 000a 2046     		mov	r0, r4
 268 000c FFF7FEFF 		bl	sprintf
 269              	.LVL30:
  82:main.c        ****     UART_PutString(str) ;
 270              		.loc 1 82 0
 271 0010 2046     		mov	r0, r4
 272 0012 FFF7FEFF 		bl	UART_PutString
 273              	.LVL31:
 274 0016 10BD     		pop	{r4, pc}
 275              	.L18:
 276              		.align	2
 277              	.L17:
 278 0018 00000000 		.word	str
 279 001c 0C000000 		.word	.LC1
 280 0020 18000000 		.word	.LC2
 281 0024 24000000 		.word	.LC3
 282              		.cfi_endproc
 283              	.LFE68:
 284              		.size	splash, .-splash
 285              		.section	.text.main,"ax",%progbits
 286              		.align	2
 287              		.global	main
 288              		.thumb
 289              		.thumb_func
 290              		.type	main, %function
 291              	main:
 292              	.LFB69:
  83:main.c        **** }
  84:main.c        **** 
  85:main.c        **** int main(void)
  86:main.c        **** {
 293              		.loc 1 86 0
 294              		.cfi_startproc
 295              		@ args = 0, pretend = 0, frame = 0
 296              		@ frame_needed = 0, uses_anonymous_args = 0
 297 0000 10B5     		push	{r4, lr}
 298              		.cfi_def_cfa_offset 8
 299              		.cfi_offset 4, -8
 300              		.cfi_offset 14, -4
 301              	.LVL32:
  87:main.c        ****     uint16_t timeout_count = 0 ;
  88:main.c        ****     
  89:main.c        ****     init_hardware() ;
 302              		.loc 1 89 0
 303 0002 FFF7FEFF 		bl	init_hardware
 304              	.LVL33:
  90:main.c        ****     
  91:main.c        ****     splash() ;
 305              		.loc 1 91 0
 306 0006 FFF7FEFF 		bl	splash
 307              	.LVL34:
ARM GAS  C:\Users\Totos\AppData\Local\Temp\cczdlzAf.s 			page 8


 308              	.L25:
  92:main.c        **** 
  93:main.c        **** 
  94:main.c        ****     for(;;) {
  95:main.c        ****         timeout_count = 0 ;
  96:main.c        ****         pulse_trigger() ;
 309              		.loc 1 96 0
 310 000a FFF7FEFF 		bl	pulse_trigger
 311              	.LVL35:
  95:main.c        ****         pulse_trigger() ;
 312              		.loc 1 95 0
 313 000e 0024     		movs	r4, #0
  97:main.c        **** 
  98:main.c        ****         while((echo_flag == 0)&&(timeout_count < 1000)) { 
 314              		.loc 1 98 0
 315 0010 04E0     		b	.L20
 316              	.LVL36:
 317              	.L22:
  99:main.c        ****             timeout_count++ ;
 318              		.loc 1 99 0
 319 0012 0134     		adds	r4, r4, #1
 320              	.LVL37:
 321 0014 A4B2     		uxth	r4, r4
 322              	.LVL38:
 100:main.c        ****             CyDelay(1) ;
 323              		.loc 1 100 0
 324 0016 0120     		movs	r0, #1
 325 0018 FFF7FEFF 		bl	CyDelay
 326              	.LVL39:
 327              	.L20:
  98:main.c        ****             timeout_count++ ;
 328              		.loc 1 98 0
 329 001c 0C4B     		ldr	r3, .L27
 330 001e 5B68     		ldr	r3, [r3, #4]
 331 0020 13B9     		cbnz	r3, .L21
  98:main.c        ****             timeout_count++ ;
 332              		.loc 1 98 0 is_stmt 0 discriminator 1
 333 0022 B4F57A7F 		cmp	r4, #1000
 334 0026 F4D3     		bcc	.L22
 335              	.L21:
 101:main.c        ****         }
 102:main.c        **** 
 103:main.c        ****         if (echo_flag) {
 336              		.loc 1 103 0 is_stmt 1
 337 0028 094B     		ldr	r3, .L27
 338 002a 5B68     		ldr	r3, [r3, #4]
 339 002c 3BB1     		cbz	r3, .L23
 104:main.c        ****             echo_flag = 0 ;
 340              		.loc 1 104 0
 341 002e 084B     		ldr	r3, .L27
 342 0030 0022     		movs	r2, #0
 343 0032 5A60     		str	r2, [r3, #4]
 105:main.c        ****             print_value(duration) ;
 344              		.loc 1 105 0
 345 0034 1888     		ldrh	r0, [r3]
 346 0036 80B2     		uxth	r0, r0
 347 0038 FFF7FEFF 		bl	print_value
ARM GAS  C:\Users\Totos\AppData\Local\Temp\cczdlzAf.s 			page 9


 348              	.LVL40:
 349 003c 02E0     		b	.L24
 350              	.L23:
 106:main.c        ****         } else {
 107:main.c        ****                 UART_PutString("Timeout\r\n") ;
 351              		.loc 1 107 0
 352 003e 0548     		ldr	r0, .L27+4
 353 0040 FFF7FEFF 		bl	UART_PutString
 354              	.LVL41:
 355              	.L24:
 108:main.c        ****         }
 109:main.c        ****         CyDelay(1000) ;
 356              		.loc 1 109 0
 357 0044 4FF47A70 		mov	r0, #1000
 358 0048 FFF7FEFF 		bl	CyDelay
 359              	.LVL42:
 110:main.c        ****     }
 360              		.loc 1 110 0
 361 004c DDE7     		b	.L25
 362              	.L28:
 363 004e 00BF     		.align	2
 364              	.L27:
 365 0050 00000000 		.word	.LANCHOR0
 366 0054 48000000 		.word	.LC4
 367              		.cfi_endproc
 368              	.LFE69:
 369              		.size	main, .-main
 370              		.comm	str,128,4
 371              		.global	echo_flag
 372              		.global	duration
 373              		.section	.rodata.str1.4,"aMS",%progbits,1
 374              		.align	2
 375              	.LC0:
 376 0000 25642E25 		.ascii	"%d.%02dcm\015\012\000"
 376      30326463 
 376      6D0D0A00 
 377              	.LC1:
 378 000c 32313A30 		.ascii	"21:00:36\000"
 378      303A3336 
 378      00
 379 0015 000000   		.space	3
 380              	.LC2:
 381 0018 41707220 		.ascii	"Apr 28 2025\000"
 381      32382032 
 381      30323500 
 382              	.LC3:
 383 0024 48432D53 		.ascii	"HC-SR04 Test CY8CKIT-059 (%s %s)\015\012\000"
 383      52303420 
 383      54657374 
 383      20435938 
 383      434B4954 
 384 0047 00       		.space	1
 385              	.LC4:
 386 0048 54696D65 		.ascii	"Timeout\015\012\000"
 386      6F75740D 
 386      0A00
 387              		.bss
ARM GAS  C:\Users\Totos\AppData\Local\Temp\cczdlzAf.s 			page 10


 388              		.align	2
 389              		.set	.LANCHOR0,. + 0
 390              		.type	duration, %object
 391              		.size	duration, 2
 392              	duration:
 393 0000 0000     		.space	2
 394 0002 0000     		.space	2
 395              		.type	echo_flag, %object
 396              		.size	echo_flag, 4
 397              	echo_flag:
 398 0004 00000000 		.space	4
 399              		.text
 400              	.Letext0:
 401              		.file 2 "c:\\program files (x86)\\cypress\\psoc creator\\4.2\\psoc creator\\import\\gnu\\arm\\5.4.
 402              		.file 3 "c:\\program files (x86)\\cypress\\psoc creator\\4.2\\psoc creator\\import\\gnu\\arm\\5.4.
 403              		.file 4 "Generated_Source\\PSoC5/core_cm3.h"
 404              		.file 5 "Generated_Source\\PSoC5/isr_echo_int.h"
 405              		.file 6 "Generated_Source\\PSoC5/Counter.h"
 406              		.file 7 "Generated_Source\\PSoC5/Trigger.h"
 407              		.file 8 "Generated_Source\\PSoC5/Clock_24MHz.h"
 408              		.file 9 "Generated_Source\\PSoC5/UART.h"
 409              		.file 10 "Generated_Source\\PSoC5/Counter_Reset.h"
 410              		.file 11 "Generated_Source\\PSoC5/CyLib.h"
 411              		.file 12 "c:\\program files (x86)\\cypress\\psoc creator\\4.2\\psoc creator\\import\\gnu\\arm\\5.4