ARM GAS  C:\Users\peter\AppData\Local\Temp\ccAEADZc.s 			page 1


   1              		.syntax unified
   2              		.cpu cortex-m3
   3              		.fpu softvfp
   4              		.eabi_attribute 20, 1
   5              		.eabi_attribute 21, 1
   6              		.eabi_attribute 23, 3
   7              		.eabi_attribute 24, 1
   8              		.eabi_attribute 25, 1
   9              		.eabi_attribute 26, 1
  10              		.eabi_attribute 30, 1
  11              		.eabi_attribute 34, 1
  12              		.eabi_attribute 18, 4
  13              		.thumb
  14              		.syntax unified
  15              		.file	"main.c"
  16              		.text
  17              	.Ltext0:
  18              		.cfi_sections	.debug_frame
  19              		.section	.text.Stepper_Timer_ISR_Handler,"ax",%progbits
  20              		.align	2
  21              		.global	Stepper_Timer_ISR_Handler
  22              		.thumb
  23              		.thumb_func
  24              		.type	Stepper_Timer_ISR_Handler, %function
  25              	Stepper_Timer_ISR_Handler:
  26              	.LFB63:
  27              		.file 1 "main.c"
   1:main.c        **** #include "project.h"
   2:main.c        **** #include <stdlib.h>  // for abs()
   3:main.c        **** 
   4:main.c        **** // === Makroer til kontrol af A4988 stepperdriverens signaler ===
   5:main.c        **** // Makroer for dial-motoren
   6:main.c        **** #define DIAL_STEP_PIN_STEP    dialStepPin_Write(1)
   7:main.c        **** #define DIAL_STEP_PIN_RESET   dialStepPin_Write(0)
   8:main.c        **** #define DIAL_DIR_PIN_FORWARD  dialDirPin_Write(1)
   9:main.c        **** #define DIAL_DIR_PIN_BACKWARD dialDirPin_Write(0)
  10:main.c        **** 
  11:main.c        **** // Makroer for angle-motoren
  12:main.c        **** #define ANGLE_STEP_PIN_STEP    angleStepPin_Write(1)
  13:main.c        **** #define ANGLE_STEP_PIN_RESET   angleStepPin_Write(0)
  14:main.c        **** #define ANGLE_DIR_PIN_FORWARD  angleDirPin_Write(1)
  15:main.c        **** #define ANGLE_DIR_PIN_BACKWARD angleDirPin_Write(0)
  16:main.c        **** 
  17:main.c        **** // Makroer for affyringsmotoren
  18:main.c        **** #define FIRE_STEP_PIN_STEP    fireStepPin_Write(1)
  19:main.c        **** #define FIRE_STEP_PIN_RESET   fireStepPin_Write(0)
  20:main.c        **** #define FIRE_DIR_PIN_FORWARD  fireDirPin_Write(1)
  21:main.c        **** #define FIRE_DIR_PIN_BACKWARD fireDirPin_Write(0)
  22:main.c        **** 
  23:main.c        **** // === Konfiguration ===
  24:main.c        **** #define DIAL_MAX_POSITION 100               // Maksimalt logisk mål for dial-motoren
  25:main.c        **** #define DIAL_MIN_POSITION -100              // Minimum logisk mål for dial-motoren
  26:main.c        **** #define ANGLE_MAX_POSITION 50               // Maksimalt logisk mål for angle-motoren
  27:main.c        **** #define ANGLE_MIN_POSITION 0               // Minimum logisk mål for angle-motoren
  28:main.c        **** #define FIRE_MAX_STEPS 70                  // Antal steps affyringsmotoren skal tage pr. aktivering
  29:main.c        **** #define TIMER_PERIOD 25                    // Fælles periodetid for alle steppermotorer
  30:main.c        **** 
ARM GAS  C:\Users\peter\AppData\Local\Temp\ccAEADZc.s 			page 2


  31:main.c        **** // === Globale variabler for dial motor ===
  32:main.c        **** volatile int8 dialCurrentPosition = 0;     // Nuværende logiske position
  33:main.c        **** volatile int8 dialTargetPosition = 0;      // Ønsket logisk målposition
  34:main.c        **** volatile int16 dialStepsRemaining = 0;     // Steps tilbage til målet
  35:main.c        **** volatile int8 dialDirection = 1;           // 1 = frem, -1 = tilbage
  36:main.c        **** 
  37:main.c        **** // === Globale variabler for angle motor ===
  38:main.c        **** volatile int8 angleCurrentPosition = 0;    // Nuværende logiske position
  39:main.c        **** volatile int8 angleTargetPosition = 0;     // Ønsket logisk målposition
  40:main.c        **** volatile int16 angleStepsRemaining = 0;    // Steps tilbage til målet
  41:main.c        **** volatile int8 angleDirection = 1;          // 1 = frem, -1 = tilbage
  42:main.c        **** 
  43:main.c        **** // === Globale variabler for affyringsmekanisme ===
  44:main.c        **** volatile int16 fireStepsRemaining = 0;     // Steps tilbage i nuværende bevægelse
  45:main.c        **** volatile int8 fireDirection = 1;           // 1 = frem, -1 = tilbage
  46:main.c        **** volatile uint8 fireStepPhase = 0;          // 0 = fremad, 1 = retur
  47:main.c        **** volatile uint8 fireInProgress = 0;         // Flag: kører affyringssekvens?
  48:main.c        **** 
  49:main.c        **** // === TIMER ISR: kaldes hver gang Timer_1 udløber ===
  50:main.c        **** // Håndterer alle tre motorers step-pulser
  51:main.c        **** CY_ISR(Stepper_Timer_ISR_Handler)
  52:main.c        **** {
  28              		.loc 1 52 0
  29              		.cfi_startproc
  30              		@ args = 0, pretend = 0, frame = 0
  31              		@ frame_needed = 0, uses_anonymous_args = 0
  32 0000 10B5     		push	{r4, lr}
  33              		.cfi_def_cfa_offset 8
  34              		.cfi_offset 4, -8
  35              		.cfi_offset 14, -4
  53:main.c        ****     Timer_1_ReadStatusRegister(); // Ryd interrupt-flag ved at læse status
  36              		.loc 1 53 0
  37 0002 FFF7FEFF 		bl	Timer_1_ReadStatusRegister
  38              	.LVL0:
  54:main.c        **** 
  55:main.c        ****     // --- Dial motor ---
  56:main.c        ****     if (dialStepsRemaining > 0)
  39              		.loc 1 56 0
  40 0006 404B     		ldr	r3, .L9
  41 0008 1B88     		ldrh	r3, [r3]
  42 000a 1BB2     		sxth	r3, r3
  43 000c 002B     		cmp	r3, #0
  44 000e 15DD     		ble	.L2
  57:main.c        ****     {
  58:main.c        ****         DIAL_STEP_PIN_STEP;
  45              		.loc 1 58 0
  46 0010 0120     		movs	r0, #1
  47 0012 FFF7FEFF 		bl	dialStepPin_Write
  48              	.LVL1:
  59:main.c        ****         CyDelayUs(50); // kort puls
  49              		.loc 1 59 0
  50 0016 3220     		movs	r0, #50
  51 0018 FFF7FEFF 		bl	CyDelayUs
  52              	.LVL2:
  60:main.c        ****         DIAL_STEP_PIN_RESET;
  53              		.loc 1 60 0
  54 001c 0020     		movs	r0, #0
ARM GAS  C:\Users\peter\AppData\Local\Temp\ccAEADZc.s 			page 3


  55 001e FFF7FEFF 		bl	dialStepPin_Write
  56              	.LVL3:
  61:main.c        ****         dialStepsRemaining--;
  57              		.loc 1 61 0
  58 0022 394A     		ldr	r2, .L9
  59 0024 1388     		ldrh	r3, [r2]
  60 0026 013B     		subs	r3, r3, #1
  61 0028 1BB2     		sxth	r3, r3
  62 002a 1380     		strh	r3, [r2]	@ movhi
  62:main.c        ****         dialCurrentPosition += dialDirection;
  63              		.loc 1 62 0
  64 002c 374B     		ldr	r3, .L9+4
  65 002e 1B78     		ldrb	r3, [r3]	@ zero_extendqisi2
  66 0030 59B2     		sxtb	r1, r3
  67 0032 9378     		ldrb	r3, [r2, #2]	@ zero_extendqisi2
  68 0034 5BB2     		sxtb	r3, r3
  69 0036 0B44     		add	r3, r3, r1
  70 0038 5BB2     		sxtb	r3, r3
  71 003a 9370     		strb	r3, [r2, #2]
  72              	.L2:
  63:main.c        ****     }
  64:main.c        **** 
  65:main.c        ****     // --- Angle motor ---
  66:main.c        ****     if (angleStepsRemaining > 0)
  73              		.loc 1 66 0
  74 003c 324B     		ldr	r3, .L9
  75 003e 9B88     		ldrh	r3, [r3, #4]
  76 0040 1BB2     		sxth	r3, r3
  77 0042 002B     		cmp	r3, #0
  78 0044 15DD     		ble	.L3
  67:main.c        ****     {
  68:main.c        ****         ANGLE_STEP_PIN_STEP;
  79              		.loc 1 68 0
  80 0046 0120     		movs	r0, #1
  81 0048 FFF7FEFF 		bl	angleStepPin_Write
  82              	.LVL4:
  69:main.c        ****         CyDelayUs(50);
  83              		.loc 1 69 0
  84 004c 3220     		movs	r0, #50
  85 004e FFF7FEFF 		bl	CyDelayUs
  86              	.LVL5:
  70:main.c        ****         ANGLE_STEP_PIN_RESET;
  87              		.loc 1 70 0
  88 0052 0020     		movs	r0, #0
  89 0054 FFF7FEFF 		bl	angleStepPin_Write
  90              	.LVL6:
  71:main.c        ****         angleStepsRemaining--;
  91              		.loc 1 71 0
  92 0058 2B4A     		ldr	r2, .L9
  93 005a 9388     		ldrh	r3, [r2, #4]
  94 005c 013B     		subs	r3, r3, #1
  95 005e 1BB2     		sxth	r3, r3
  96 0060 9380     		strh	r3, [r2, #4]	@ movhi
  72:main.c        ****         angleCurrentPosition += angleDirection;
  97              		.loc 1 72 0
  98 0062 2A4B     		ldr	r3, .L9+4
  99 0064 5B78     		ldrb	r3, [r3, #1]	@ zero_extendqisi2
ARM GAS  C:\Users\peter\AppData\Local\Temp\ccAEADZc.s 			page 4


 100 0066 59B2     		sxtb	r1, r3
 101 0068 9379     		ldrb	r3, [r2, #6]	@ zero_extendqisi2
 102 006a 5BB2     		sxtb	r3, r3
 103 006c 0B44     		add	r3, r3, r1
 104 006e 5BB2     		sxtb	r3, r3
 105 0070 9371     		strb	r3, [r2, #6]
 106              	.L3:
  73:main.c        ****     }
  74:main.c        **** 
  75:main.c        ****     // --- Affyringsmotor ---
  76:main.c        ****     if (fireStepsRemaining > 0)
 107              		.loc 1 76 0
 108 0072 254B     		ldr	r3, .L9
 109 0074 1B89     		ldrh	r3, [r3, #8]
 110 0076 1BB2     		sxth	r3, r3
 111 0078 002B     		cmp	r3, #0
 112 007a 0EDD     		ble	.L4
  77:main.c        ****     {
  78:main.c        ****         FIRE_STEP_PIN_STEP;
 113              		.loc 1 78 0
 114 007c 0120     		movs	r0, #1
 115 007e FFF7FEFF 		bl	fireStepPin_Write
 116              	.LVL7:
  79:main.c        ****         CyDelayUs(50);
 117              		.loc 1 79 0
 118 0082 3220     		movs	r0, #50
 119 0084 FFF7FEFF 		bl	CyDelayUs
 120              	.LVL8:
  80:main.c        ****         FIRE_STEP_PIN_RESET;
 121              		.loc 1 80 0
 122 0088 0020     		movs	r0, #0
 123 008a FFF7FEFF 		bl	fireStepPin_Write
 124              	.LVL9:
  81:main.c        ****         fireStepsRemaining--;
 125              		.loc 1 81 0
 126 008e 1E4A     		ldr	r2, .L9
 127 0090 1389     		ldrh	r3, [r2, #8]
 128 0092 013B     		subs	r3, r3, #1
 129 0094 1BB2     		sxth	r3, r3
 130 0096 1381     		strh	r3, [r2, #8]	@ movhi
 131 0098 22E0     		b	.L5
 132              	.L4:
  82:main.c        ****     }
  83:main.c        ****     else if (fireInProgress && fireStepPhase == 0)
 133              		.loc 1 83 0
 134 009a 1B4B     		ldr	r3, .L9
 135 009c 9B7A     		ldrb	r3, [r3, #10]	@ zero_extendqisi2
 136 009e 13F0FF0F 		tst	r3, #255
 137 00a2 10D0     		beq	.L6
 138              		.loc 1 83 0 is_stmt 0 discriminator 1
 139 00a4 184B     		ldr	r3, .L9
 140 00a6 DB7A     		ldrb	r3, [r3, #11]	@ zero_extendqisi2
 141 00a8 13F0FF0F 		tst	r3, #255
 142 00ac 0BD1     		bne	.L6
  84:main.c        ****     {
  85:main.c        ****         // Skift til retur når første fase (frem) er færdig
  86:main.c        ****         fireStepPhase = 1;
ARM GAS  C:\Users\peter\AppData\Local\Temp\ccAEADZc.s 			page 5


 143              		.loc 1 86 0 is_stmt 1
 144 00ae 164C     		ldr	r4, .L9
 145 00b0 0123     		movs	r3, #1
 146 00b2 E372     		strb	r3, [r4, #11]
  87:main.c        ****         fireDirection = -1;
 147              		.loc 1 87 0
 148 00b4 FF22     		movs	r2, #255
 149 00b6 154B     		ldr	r3, .L9+4
 150 00b8 9A70     		strb	r2, [r3, #2]
  88:main.c        ****         FIRE_DIR_PIN_BACKWARD;
 151              		.loc 1 88 0
 152 00ba 0020     		movs	r0, #0
 153 00bc FFF7FEFF 		bl	fireDirPin_Write
 154              	.LVL10:
  89:main.c        ****         fireStepsRemaining = FIRE_MAX_STEPS;
 155              		.loc 1 89 0
 156 00c0 4623     		movs	r3, #70
 157 00c2 2381     		strh	r3, [r4, #8]	@ movhi
 158 00c4 0CE0     		b	.L5
 159              	.L6:
  90:main.c        ****     }
  91:main.c        ****     else if (fireInProgress && fireStepPhase == 1)
 160              		.loc 1 91 0
 161 00c6 104B     		ldr	r3, .L9
 162 00c8 9B7A     		ldrb	r3, [r3, #10]	@ zero_extendqisi2
 163 00ca 13F0FF0F 		tst	r3, #255
 164 00ce 07D0     		beq	.L5
 165              		.loc 1 91 0 is_stmt 0 discriminator 1
 166 00d0 0D4B     		ldr	r3, .L9
 167 00d2 DB7A     		ldrb	r3, [r3, #11]	@ zero_extendqisi2
 168 00d4 DBB2     		uxtb	r3, r3
 169 00d6 012B     		cmp	r3, #1
 170 00d8 02D1     		bne	.L5
  92:main.c        ****     {
  93:main.c        ****         // Hele affyringssekvensen er færdig (frem + retur)
  94:main.c        ****         fireInProgress = 0;
 171              		.loc 1 94 0 is_stmt 1
 172 00da 0022     		movs	r2, #0
 173 00dc 0A4B     		ldr	r3, .L9
 174 00de 9A72     		strb	r2, [r3, #10]
 175              	.L5:
  95:main.c        ****     }
  96:main.c        **** 
  97:main.c        ****     // --- Stop timeren hvis INGEN motorer er aktive ---
  98:main.c        ****     if (dialStepsRemaining == 0 && angleStepsRemaining == 0 && fireStepsRemaining == 0 && !fireInPr
 176              		.loc 1 98 0
 177 00e0 094B     		ldr	r3, .L9
 178 00e2 1B88     		ldrh	r3, [r3]
 179 00e4 1BB2     		sxth	r3, r3
 180 00e6 73B9     		cbnz	r3, .L1
 181              		.loc 1 98 0 is_stmt 0 discriminator 1
 182 00e8 074B     		ldr	r3, .L9
 183 00ea 9B88     		ldrh	r3, [r3, #4]
 184 00ec 1BB2     		sxth	r3, r3
 185 00ee 53B9     		cbnz	r3, .L1
 186              		.loc 1 98 0 discriminator 2
 187 00f0 054B     		ldr	r3, .L9
ARM GAS  C:\Users\peter\AppData\Local\Temp\ccAEADZc.s 			page 6


 188 00f2 1B89     		ldrh	r3, [r3, #8]
 189 00f4 1BB2     		sxth	r3, r3
 190 00f6 33B9     		cbnz	r3, .L1
 191              		.loc 1 98 0 discriminator 3
 192 00f8 034B     		ldr	r3, .L9
 193 00fa 9B7A     		ldrb	r3, [r3, #10]	@ zero_extendqisi2
 194 00fc 13F0FF0F 		tst	r3, #255
 195 0100 01D1     		bne	.L1
  99:main.c        ****     {
 100:main.c        ****         Timer_1_Stop();
 196              		.loc 1 100 0 is_stmt 1
 197 0102 FFF7FEFF 		bl	Timer_1_Stop
 198              	.LVL11:
 199              	.L1:
 200 0106 10BD     		pop	{r4, pc}
 201              	.L10:
 202              		.align	2
 203              	.L9:
 204 0108 00000000 		.word	.LANCHOR0
 205 010c 00000000 		.word	.LANCHOR1
 206              		.cfi_endproc
 207              	.LFE63:
 208              		.size	Stepper_Timer_ISR_Handler, .-Stepper_Timer_ISR_Handler
 209              		.section	.text.setStepperTargets,"ax",%progbits
 210              		.align	2
 211              		.global	setStepperTargets
 212              		.thumb
 213              		.thumb_func
 214              		.type	setStepperTargets, %function
 215              	setStepperTargets:
 216              	.LFB64:
 101:main.c        ****     }
 102:main.c        **** }
 103:main.c        **** 
 104:main.c        **** // === Funktion: styrer dial og angle motorer ===
 105:main.c        **** // Input: ønsket dial- og angle-position
 106:main.c        **** void setStepperTargets(int8 dialTarget, int8 angleTarget)
 107:main.c        **** {
 217              		.loc 1 107 0
 218              		.cfi_startproc
 219              		@ args = 0, pretend = 0, frame = 0
 220              		@ frame_needed = 0, uses_anonymous_args = 0
 221              	.LVL12:
 222 0000 10B5     		push	{r4, lr}
 223              		.cfi_def_cfa_offset 8
 224              		.cfi_offset 4, -8
 225              		.cfi_offset 14, -4
 226 0002 0C46     		mov	r4, r1
 108:main.c        ****     // --- Dial ---
 109:main.c        ****     if (dialTarget > DIAL_MAX_POSITION) dialTarget = DIAL_MAX_POSITION;
 227              		.loc 1 109 0
 228 0004 6428     		cmp	r0, #100
 229 0006 00DD     		ble	.L12
 230 0008 6420     		movs	r0, #100
 231              	.LVL13:
 232              	.L12:
 110:main.c        ****     if (dialTarget < DIAL_MIN_POSITION) dialTarget = DIAL_MIN_POSITION;
ARM GAS  C:\Users\peter\AppData\Local\Temp\ccAEADZc.s 			page 7


 233              		.loc 1 110 0
 234 000a 10F1640F 		cmn	r0, #100
 235 000e 01DA     		bge	.L13
 236 0010 6FF06300 		mvn	r0, #99
 237              	.LVL14:
 238              	.L13:
 111:main.c        ****     int16 dialDelta = dialTarget - dialCurrentPosition;
 239              		.loc 1 111 0
 240 0014 2B4B     		ldr	r3, .L31
 241 0016 9B78     		ldrb	r3, [r3, #2]	@ zero_extendqisi2
 242 0018 5BB2     		sxtb	r3, r3
 243 001a C31A     		subs	r3, r0, r3
 244              	.LVL15:
 112:main.c        ****     dialDirection = (dialDelta > 0) ? 1 : -1;
 245              		.loc 1 112 0
 246 001c 002B     		cmp	r3, #0
 247 001e 01DD     		ble	.L26
 248 0020 0121     		movs	r1, #1
 249              	.LVL16:
 250 0022 01E0     		b	.L14
 251              	.LVL17:
 252              	.L26:
 253 0024 4FF0FF31 		mov	r1, #-1
 254              	.LVL18:
 255              	.L14:
 256              		.loc 1 112 0 is_stmt 0 discriminator 4
 257 0028 274A     		ldr	r2, .L31+4
 258 002a 1170     		strb	r1, [r2]
 113:main.c        ****     dialStepsRemaining = abs(dialDelta);
 259              		.loc 1 113 0 is_stmt 1 discriminator 4
 260 002c 002B     		cmp	r3, #0
 261 002e B8BF     		it	lt
 262 0030 5B42     		rsblt	r3, r3, #0
 263              	.LVL19:
 264 0032 1BB2     		sxth	r3, r3
 265 0034 2349     		ldr	r1, .L31
 266 0036 0B80     		strh	r3, [r1]	@ movhi
 114:main.c        ****     dialTargetPosition = dialTarget;
 267              		.loc 1 114 0 discriminator 4
 268 0038 0873     		strb	r0, [r1, #12]
 115:main.c        ****     if (dialDirection > 0) DIAL_DIR_PIN_FORWARD; else DIAL_DIR_PIN_BACKWARD;
 269              		.loc 1 115 0 discriminator 4
 270 003a 1378     		ldrb	r3, [r2]	@ zero_extendqisi2
 271 003c 5BB2     		sxtb	r3, r3
 272 003e 002B     		cmp	r3, #0
 273 0040 03DD     		ble	.L15
 274              		.loc 1 115 0 is_stmt 0 discriminator 1
 275 0042 0120     		movs	r0, #1
 276              	.LVL20:
 277 0044 FFF7FEFF 		bl	dialDirPin_Write
 278              	.LVL21:
 279 0048 02E0     		b	.L16
 280              	.LVL22:
 281              	.L15:
 282              		.loc 1 115 0 discriminator 2
 283 004a 0020     		movs	r0, #0
 284              	.LVL23:
ARM GAS  C:\Users\peter\AppData\Local\Temp\ccAEADZc.s 			page 8


 285 004c FFF7FEFF 		bl	dialDirPin_Write
 286              	.LVL24:
 287              	.L16:
 116:main.c        **** 
 117:main.c        ****     // --- Angle ---
 118:main.c        ****     if (angleTarget > ANGLE_MAX_POSITION) angleTarget = ANGLE_MAX_POSITION;
 288              		.loc 1 118 0 is_stmt 1
 289 0050 322C     		cmp	r4, #50
 290 0052 00DD     		ble	.L17
 291 0054 3224     		movs	r4, #50
 292              	.L17:
 293              	.LVL25:
 119:main.c        ****     if (angleTarget < ANGLE_MIN_POSITION) angleTarget = ANGLE_MIN_POSITION;
 294              		.loc 1 119 0
 295 0056 002C     		cmp	r4, #0
 296 0058 00DA     		bge	.L18
 297 005a 0024     		movs	r4, #0
 298              	.LVL26:
 299              	.L18:
 120:main.c        ****     int16 angleDelta = angleTarget - angleCurrentPosition;
 300              		.loc 1 120 0
 301 005c 194B     		ldr	r3, .L31
 302 005e 9B79     		ldrb	r3, [r3, #6]	@ zero_extendqisi2
 303 0060 5BB2     		sxtb	r3, r3
 304 0062 E31A     		subs	r3, r4, r3
 305              	.LVL27:
 121:main.c        ****     angleDirection = (angleDelta > 0) ? 1 : -1;
 306              		.loc 1 121 0
 307 0064 002B     		cmp	r3, #0
 308 0066 01DD     		ble	.L29
 309 0068 0121     		movs	r1, #1
 310 006a 01E0     		b	.L19
 311              	.L29:
 312 006c 4FF0FF31 		mov	r1, #-1
 313              	.L19:
 314              		.loc 1 121 0 is_stmt 0 discriminator 4
 315 0070 154A     		ldr	r2, .L31+4
 316 0072 5170     		strb	r1, [r2, #1]
 122:main.c        ****     angleStepsRemaining = abs(angleDelta);
 317              		.loc 1 122 0 is_stmt 1 discriminator 4
 318 0074 002B     		cmp	r3, #0
 319 0076 B8BF     		it	lt
 320 0078 5B42     		rsblt	r3, r3, #0
 321              	.LVL28:
 322 007a 1BB2     		sxth	r3, r3
 323 007c 1149     		ldr	r1, .L31
 324 007e 8B80     		strh	r3, [r1, #4]	@ movhi
 123:main.c        ****     angleTargetPosition = angleTarget;
 325              		.loc 1 123 0 discriminator 4
 326 0080 4C73     		strb	r4, [r1, #13]
 124:main.c        ****     if (angleDirection > 0) ANGLE_DIR_PIN_FORWARD; else ANGLE_DIR_PIN_BACKWARD;
 327              		.loc 1 124 0 discriminator 4
 328 0082 5378     		ldrb	r3, [r2, #1]	@ zero_extendqisi2
 329 0084 5BB2     		sxtb	r3, r3
 330 0086 002B     		cmp	r3, #0
 331 0088 03DD     		ble	.L20
 332              		.loc 1 124 0 is_stmt 0 discriminator 1
ARM GAS  C:\Users\peter\AppData\Local\Temp\ccAEADZc.s 			page 9


 333 008a 0120     		movs	r0, #1
 334 008c FFF7FEFF 		bl	angleDirPin_Write
 335              	.LVL29:
 336 0090 02E0     		b	.L21
 337              	.L20:
 338              		.loc 1 124 0 discriminator 2
 339 0092 0020     		movs	r0, #0
 340 0094 FFF7FEFF 		bl	angleDirPin_Write
 341              	.LVL30:
 342              	.L21:
 125:main.c        **** 
 126:main.c        ****     // --- Start timer hvis noget skal bevæge sig ---
 127:main.c        ****     if (dialStepsRemaining > 0 || angleStepsRemaining > 0)
 343              		.loc 1 127 0 is_stmt 1
 344 0098 0A4B     		ldr	r3, .L31
 345 009a 1B88     		ldrh	r3, [r3]
 346 009c 1BB2     		sxth	r3, r3
 347 009e 002B     		cmp	r3, #0
 348 00a0 04DC     		bgt	.L22
 349              		.loc 1 127 0 is_stmt 0 discriminator 1
 350 00a2 084B     		ldr	r3, .L31
 351 00a4 9B88     		ldrh	r3, [r3, #4]
 352 00a6 1BB2     		sxth	r3, r3
 353 00a8 002B     		cmp	r3, #0
 354 00aa 09DD     		ble	.L11
 355              	.L22:
 128:main.c        ****     {
 129:main.c        ****         Timer_1_Stop();
 356              		.loc 1 129 0 is_stmt 1
 357 00ac FFF7FEFF 		bl	Timer_1_Stop
 358              	.LVL31:
 130:main.c        ****         Timer_1_WritePeriod(TIMER_PERIOD);
 359              		.loc 1 130 0
 360 00b0 1920     		movs	r0, #25
 361 00b2 FFF7FEFF 		bl	Timer_1_WritePeriod
 362              	.LVL32:
 131:main.c        ****         Timer_1_WriteCounter(0);
 363              		.loc 1 131 0
 364 00b6 0020     		movs	r0, #0
 365 00b8 FFF7FEFF 		bl	Timer_1_WriteCounter
 366              	.LVL33:
 132:main.c        ****         Timer_1_Start();
 367              		.loc 1 132 0
 368 00bc FFF7FEFF 		bl	Timer_1_Start
 369              	.LVL34:
 370              	.L11:
 371 00c0 10BD     		pop	{r4, pc}
 372              	.LVL35:
 373              	.L32:
 374 00c2 00BF     		.align	2
 375              	.L31:
 376 00c4 00000000 		.word	.LANCHOR0
 377 00c8 00000000 		.word	.LANCHOR1
 378              		.cfi_endproc
 379              	.LFE64:
 380              		.size	setStepperTargets, .-setStepperTargets
 381              		.section	.text.fireMechanism,"ax",%progbits
ARM GAS  C:\Users\peter\AppData\Local\Temp\ccAEADZc.s 			page 10


 382              		.align	2
 383              		.global	fireMechanism
 384              		.thumb
 385              		.thumb_func
 386              		.type	fireMechanism, %function
 387              	fireMechanism:
 388              	.LFB65:
 133:main.c        ****     }
 134:main.c        **** }
 135:main.c        **** 
 136:main.c        **** // === Funktion: aktiver affyringsmekanismen (frem og tilbage) ===
 137:main.c        **** // Kalder du denne, starter en komplet sekvens
 138:main.c        **** void fireMechanism(void)
 139:main.c        **** {
 389              		.loc 1 139 0
 390              		.cfi_startproc
 391              		@ args = 0, pretend = 0, frame = 0
 392              		@ frame_needed = 0, uses_anonymous_args = 0
 393 0000 38B5     		push	{r3, r4, r5, lr}
 394              		.cfi_def_cfa_offset 16
 395              		.cfi_offset 3, -16
 396              		.cfi_offset 4, -12
 397              		.cfi_offset 5, -8
 398              		.cfi_offset 14, -4
 140:main.c        ****     fireStepPhase = 0;             // Start med fremad
 399              		.loc 1 140 0
 400 0002 0B4C     		ldr	r4, .L35
 401 0004 0025     		movs	r5, #0
 402 0006 E572     		strb	r5, [r4, #11]
 141:main.c        ****     fireDirection = 1;
 403              		.loc 1 141 0
 404 0008 0120     		movs	r0, #1
 405 000a 0A4B     		ldr	r3, .L35+4
 406 000c 9870     		strb	r0, [r3, #2]
 142:main.c        ****     fireInProgress = 1;            // Flag: aktiv sekvens
 407              		.loc 1 142 0
 408 000e A072     		strb	r0, [r4, #10]
 143:main.c        ****     FIRE_DIR_PIN_FORWARD;
 409              		.loc 1 143 0
 410 0010 FFF7FEFF 		bl	fireDirPin_Write
 411              	.LVL36:
 144:main.c        ****     fireStepsRemaining = FIRE_MAX_STEPS;
 412              		.loc 1 144 0
 413 0014 4623     		movs	r3, #70
 414 0016 2381     		strh	r3, [r4, #8]	@ movhi
 145:main.c        **** 
 146:main.c        ****     Timer_1_Stop();
 415              		.loc 1 146 0
 416 0018 FFF7FEFF 		bl	Timer_1_Stop
 417              	.LVL37:
 147:main.c        ****     Timer_1_WritePeriod(TIMER_PERIOD);
 418              		.loc 1 147 0
 419 001c 1920     		movs	r0, #25
 420 001e FFF7FEFF 		bl	Timer_1_WritePeriod
 421              	.LVL38:
 148:main.c        ****     Timer_1_WriteCounter(0);
 422              		.loc 1 148 0
ARM GAS  C:\Users\peter\AppData\Local\Temp\ccAEADZc.s 			page 11


 423 0022 2846     		mov	r0, r5
 424 0024 FFF7FEFF 		bl	Timer_1_WriteCounter
 425              	.LVL39:
 149:main.c        ****     Timer_1_Start();
 426              		.loc 1 149 0
 427 0028 FFF7FEFF 		bl	Timer_1_Start
 428              	.LVL40:
 429 002c 38BD     		pop	{r3, r4, r5, pc}
 430              	.L36:
 431 002e 00BF     		.align	2
 432              	.L35:
 433 0030 00000000 		.word	.LANCHOR0
 434 0034 00000000 		.word	.LANCHOR1
 435              		.cfi_endproc
 436              	.LFE65:
 437              		.size	fireMechanism, .-fireMechanism
 438              		.section	.text.main,"ax",%progbits
 439              		.align	2
 440              		.global	main
 441              		.thumb
 442              		.thumb_func
 443              		.type	main, %function
 444              	main:
 445              	.LFB66:
 150:main.c        **** }
 151:main.c        **** 
 152:main.c        **** // === Main-program: testsekvens ===
 153:main.c        **** int main(void)
 154:main.c        **** {
 446              		.loc 1 154 0
 447              		.cfi_startproc
 448              		@ Volatile: function does not return.
 449              		@ args = 0, pretend = 0, frame = 0
 450              		@ frame_needed = 0, uses_anonymous_args = 0
 451 0000 08B5     		push	{r3, lr}
 452              		.cfi_def_cfa_offset 8
 453              		.cfi_offset 3, -8
 454              		.cfi_offset 14, -4
 155:main.c        ****     CyGlobalIntEnable; // Aktiver globale interrupts
 455              		.loc 1 155 0
 456              		.syntax unified
 457              	@ 155 "main.c" 1
 458 0002 62B6     		CPSIE   i
 459              	@ 0 "" 2
 156:main.c        **** 
 157:main.c        ****     // Initier alle STEP/DIR pins lav
 158:main.c        ****     dialStepPin_Write(0);
 460              		.loc 1 158 0
 461              		.thumb
 462              		.syntax unified
 463 0004 0020     		movs	r0, #0
 464 0006 FFF7FEFF 		bl	dialStepPin_Write
 465              	.LVL41:
 159:main.c        ****     dialDirPin_Write(0);
 466              		.loc 1 159 0
 467 000a 0020     		movs	r0, #0
 468 000c FFF7FEFF 		bl	dialDirPin_Write
ARM GAS  C:\Users\peter\AppData\Local\Temp\ccAEADZc.s 			page 12


 469              	.LVL42:
 160:main.c        ****     angleStepPin_Write(0);
 470              		.loc 1 160 0
 471 0010 0020     		movs	r0, #0
 472 0012 FFF7FEFF 		bl	angleStepPin_Write
 473              	.LVL43:
 161:main.c        ****     angleDirPin_Write(0);
 474              		.loc 1 161 0
 475 0016 0020     		movs	r0, #0
 476 0018 FFF7FEFF 		bl	angleDirPin_Write
 477              	.LVL44:
 162:main.c        ****     fireStepPin_Write(0);
 478              		.loc 1 162 0
 479 001c 0020     		movs	r0, #0
 480 001e FFF7FEFF 		bl	fireStepPin_Write
 481              	.LVL45:
 163:main.c        ****     fireDirPin_Write(0);
 482              		.loc 1 163 0
 483 0022 0020     		movs	r0, #0
 484 0024 FFF7FEFF 		bl	fireDirPin_Write
 485              	.LVL46:
 164:main.c        **** 
 165:main.c        ****     // Start timeren og registrer interrupt handler
 166:main.c        ****     Timer_1_Start();
 486              		.loc 1 166 0
 487 0028 FFF7FEFF 		bl	Timer_1_Start
 488              	.LVL47:
 167:main.c        ****     Timer_1_Stop();
 489              		.loc 1 167 0
 490 002c FFF7FEFF 		bl	Timer_1_Stop
 491              	.LVL48:
 168:main.c        ****     stepper_isr_timer_StartEx(Stepper_Timer_ISR_Handler);
 492              		.loc 1 168 0
 493 0030 1548     		ldr	r0, .L40
 494 0032 FFF7FEFF 		bl	stepper_isr_timer_StartEx
 495              	.LVL49:
 496              	.L38:
 169:main.c        **** 
 170:main.c        ****     // === Testsekvens ===
 171:main.c        ****     for (;;)
 172:main.c        ****     {
 173:main.c        ****         setStepperTargets(0, 0);           // Midterposition
 497              		.loc 1 173 0 discriminator 1
 498 0036 0021     		movs	r1, #0
 499 0038 0846     		mov	r0, r1
 500 003a FFF7FEFF 		bl	setStepperTargets
 501              	.LVL50:
 174:main.c        ****         CyDelay(500);
 502              		.loc 1 174 0 discriminator 1
 503 003e 4FF4FA70 		mov	r0, #500
 504 0042 FFF7FEFF 		bl	CyDelay
 505              	.LVL51:
 175:main.c        **** 
 176:main.c        ****         setStepperTargets(100, 50);        // Øvre positioner
 506              		.loc 1 176 0 discriminator 1
 507 0046 3221     		movs	r1, #50
 508 0048 6420     		movs	r0, #100
ARM GAS  C:\Users\peter\AppData\Local\Temp\ccAEADZc.s 			page 13


 509 004a FFF7FEFF 		bl	setStepperTargets
 510              	.LVL52:
 177:main.c        ****         CyDelay(500);
 511              		.loc 1 177 0 discriminator 1
 512 004e 4FF4FA70 		mov	r0, #500
 513 0052 FFF7FEFF 		bl	CyDelay
 514              	.LVL53:
 178:main.c        **** 
 179:main.c        ****         setStepperTargets(-100, 0);        // Nedre positioner
 515              		.loc 1 179 0 discriminator 1
 516 0056 0021     		movs	r1, #0
 517 0058 6FF06300 		mvn	r0, #99
 518 005c FFF7FEFF 		bl	setStepperTargets
 519              	.LVL54:
 180:main.c        ****         CyDelay(500);
 520              		.loc 1 180 0 discriminator 1
 521 0060 4FF4FA70 		mov	r0, #500
 522 0064 FFF7FEFF 		bl	CyDelay
 523              	.LVL55:
 181:main.c        **** 
 182:main.c        ****         setStepperTargets(100, 55);        // Vrid + løft
 524              		.loc 1 182 0 discriminator 1
 525 0068 3721     		movs	r1, #55
 526 006a 6420     		movs	r0, #100
 527 006c FFF7FEFF 		bl	setStepperTargets
 528              	.LVL56:
 183:main.c        ****         CyDelay(1500);
 529              		.loc 1 183 0 discriminator 1
 530 0070 40F2DC50 		movw	r0, #1500
 531 0074 FFF7FEFF 		bl	CyDelay
 532              	.LVL57:
 184:main.c        **** 
 185:main.c        ****         fireMechanism();                   // Affyr (frem og tilbage)
 533              		.loc 1 185 0 discriminator 1
 534 0078 FFF7FEFF 		bl	fireMechanism
 535              	.LVL58:
 186:main.c        ****         CyDelay(3000);
 536              		.loc 1 186 0 discriminator 1
 537 007c 40F6B830 		movw	r0, #3000
 538 0080 FFF7FEFF 		bl	CyDelay
 539              	.LVL59:
 540 0084 D7E7     		b	.L38
 541              	.L41:
 542 0086 00BF     		.align	2
 543              	.L40:
 544 0088 00000000 		.word	Stepper_Timer_ISR_Handler
 545              		.cfi_endproc
 546              	.LFE66:
 547              		.size	main, .-main
 548              		.global	fireInProgress
 549              		.global	fireStepPhase
 550              		.global	fireDirection
 551              		.global	fireStepsRemaining
 552              		.global	angleDirection
 553              		.global	angleStepsRemaining
 554              		.global	angleTargetPosition
 555              		.global	angleCurrentPosition
ARM GAS  C:\Users\peter\AppData\Local\Temp\ccAEADZc.s 			page 14


 556              		.global	dialDirection
 557              		.global	dialStepsRemaining
 558              		.global	dialTargetPosition
 559              		.global	dialCurrentPosition
 560              		.data
 561              		.set	.LANCHOR1,. + 0
 562              		.type	dialDirection, %object
 563              		.size	dialDirection, 1
 564              	dialDirection:
 565 0000 01       		.byte	1
 566              		.type	angleDirection, %object
 567              		.size	angleDirection, 1
 568              	angleDirection:
 569 0001 01       		.byte	1
 570              		.type	fireDirection, %object
 571              		.size	fireDirection, 1
 572              	fireDirection:
 573 0002 01       		.byte	1
 574              		.bss
 575              		.align	1
 576              		.set	.LANCHOR0,. + 0
 577              		.type	dialStepsRemaining, %object
 578              		.size	dialStepsRemaining, 2
 579              	dialStepsRemaining:
 580 0000 0000     		.space	2
 581              		.type	dialCurrentPosition, %object
 582              		.size	dialCurrentPosition, 1
 583              	dialCurrentPosition:
 584 0002 00       		.space	1
 585 0003 00       		.space	1
 586              		.type	angleStepsRemaining, %object
 587              		.size	angleStepsRemaining, 2
 588              	angleStepsRemaining:
 589 0004 0000     		.space	2
 590              		.type	angleCurrentPosition, %object
 591              		.size	angleCurrentPosition, 1
 592              	angleCurrentPosition:
 593 0006 00       		.space	1
 594 0007 00       		.space	1
 595              		.type	fireStepsRemaining, %object
 596              		.size	fireStepsRemaining, 2
 597              	fireStepsRemaining:
 598 0008 0000     		.space	2
 599              		.type	fireInProgress, %object
 600              		.size	fireInProgress, 1
 601              	fireInProgress:
 602 000a 00       		.space	1
 603              		.type	fireStepPhase, %object
 604              		.size	fireStepPhase, 1
 605              	fireStepPhase:
 606 000b 00       		.space	1
 607              		.type	dialTargetPosition, %object
 608              		.size	dialTargetPosition, 1
 609              	dialTargetPosition:
 610 000c 00       		.space	1
 611              		.type	angleTargetPosition, %object
 612              		.size	angleTargetPosition, 1
ARM GAS  C:\Users\peter\AppData\Local\Temp\ccAEADZc.s 			page 15


 613              	angleTargetPosition:
 614 000d 00       		.space	1
 615              		.text
 616              	.Letext0:
 617              		.file 2 "c:\\program files (x86)\\cypress\\psoc creator\\4.4\\psoc creator\\import\\gnu\\arm\\5.4.
 618              		.file 3 "c:\\program files (x86)\\cypress\\psoc creator\\4.4\\psoc creator\\import\\gnu\\arm\\5.4.
 619              		.file 4 "Generated_Source\\PSoC5/cytypes.h"
 620              		.file 5 "Generated_Source\\PSoC5/core_cm3.h"
 621              		.file 6 "Generated_Source\\PSoC5/Timer_1.h"
 622              		.file 7 "Generated_Source\\PSoC5/dialStepPin.h"
 623              		.file 8 "Generated_Source\\PSoC5/CyLib.h"
 624              		.file 9 "Generated_Source\\PSoC5/angleStepPin.h"
 625              		.file 10 "Generated_Source\\PSoC5/fireStepPin.h"
 626              		.file 11 "Generated_Source\\PSoC5/fireDirPin.h"
 627              		.file 12 "Generated_Source\\PSoC5/dialDirPin.h"
 628              		.file 13 "Generated_Source\\PSoC5/angleDirPin.h"
 629              		.file 14 "Generated_Source\\PSoC5/stepper_isr_timer.h"