ARM GAS  C:\Users\peter\AppData\Local\Temp\cchDMZLP.s 			page 1


   1              		.syntax unified
   2              		.cpu cortex-m3
   3              		.fpu softvfp
   4              		.eabi_attribute 20, 1
   5              		.eabi_attribute 21, 1
   6              		.eabi_attribute 23, 3
   7              		.eabi_attribute 24, 1
   8              		.eabi_attribute 25, 1
   9              		.eabi_attribute 26, 1
  10              		.eabi_attribute 30, 1
  11              		.eabi_attribute 34, 1
  12              		.eabi_attribute 18, 4
  13              		.thumb
  14              		.syntax unified
  15              		.file	"control.c"
  16              		.text
  17              	.Ltext0:
  18              		.cfi_sections	.debug_frame
  19              		.section	.text.Stepper_Timer_ISR_Handler,"ax",%progbits
  20              		.align	2
  21              		.global	Stepper_Timer_ISR_Handler
  22              		.thumb
  23              		.thumb_func
  24              		.type	Stepper_Timer_ISR_Handler, %function
  25              	Stepper_Timer_ISR_Handler:
  26              	.LFB63:
  27              		.file 1 "control.c"
   1:control.c     **** #include "control.h"
   2:control.c     **** #include "stepper.h"
   3:control.c     **** #include "firing.h"
   4:control.c     **** 
   5:control.c     **** // Timer ISR – ét step ad gangen
   6:control.c     **** CY_ISR(Stepper_Timer_ISR_Handler)
   7:control.c     **** {
  28              		.loc 1 7 0
  29              		.cfi_startproc
  30              		@ args = 0, pretend = 0, frame = 0
  31              		@ frame_needed = 0, uses_anonymous_args = 0
  32 0000 08B5     		push	{r3, lr}
  33              		.cfi_def_cfa_offset 8
  34              		.cfi_offset 3, -8
  35              		.cfi_offset 14, -4
   8:control.c     ****     Timer_1_ReadStatusRegister();
  36              		.loc 1 8 0
  37 0002 FFF7FEFF 		bl	Timer_1_ReadStatusRegister
  38              	.LVL0:
   9:control.c     **** 
  10:control.c     ****     // Dial
  11:control.c     ****     if (dialStepsRemaining > 0)
  39              		.loc 1 11 0
  40 0006 434B     		ldr	r3, .L9
  41 0008 1B78     		ldrb	r3, [r3]	@ zero_extendqisi2
  42 000a 5BB2     		sxtb	r3, r3
  43 000c 002B     		cmp	r3, #0
  44 000e 17DD     		ble	.L2
  12:control.c     ****     {
  13:control.c     ****         dialStepPin_Write(1);
ARM GAS  C:\Users\peter\AppData\Local\Temp\cchDMZLP.s 			page 2


  45              		.loc 1 13 0
  46 0010 0120     		movs	r0, #1
  47 0012 FFF7FEFF 		bl	dialStepPin_Write
  48              	.LVL1:
  14:control.c     ****         CyDelayUs(50);
  49              		.loc 1 14 0
  50 0016 3220     		movs	r0, #50
  51 0018 FFF7FEFF 		bl	CyDelayUs
  52              	.LVL2:
  15:control.c     ****         dialStepPin_Write(0);
  53              		.loc 1 15 0
  54 001c 0020     		movs	r0, #0
  55 001e FFF7FEFF 		bl	dialStepPin_Write
  56              	.LVL3:
  16:control.c     ****         dialStepsRemaining--;
  57              		.loc 1 16 0
  58 0022 3C4A     		ldr	r2, .L9
  59 0024 1378     		ldrb	r3, [r2]	@ zero_extendqisi2
  60 0026 5BB2     		sxtb	r3, r3
  61 0028 013B     		subs	r3, r3, #1
  62 002a 5BB2     		sxtb	r3, r3
  63 002c 1370     		strb	r3, [r2]
  17:control.c     ****         dialCurrentPosition += dialDirection;
  64              		.loc 1 17 0
  65 002e 3A4B     		ldr	r3, .L9+4
  66 0030 1B78     		ldrb	r3, [r3]	@ zero_extendqisi2
  67 0032 5AB2     		sxtb	r2, r3
  68 0034 3949     		ldr	r1, .L9+8
  69 0036 0B78     		ldrb	r3, [r1]	@ zero_extendqisi2
  70 0038 5BB2     		sxtb	r3, r3
  71 003a 1344     		add	r3, r3, r2
  72 003c 5BB2     		sxtb	r3, r3
  73 003e 0B70     		strb	r3, [r1]
  74              	.L2:
  18:control.c     ****     }
  19:control.c     **** 
  20:control.c     ****     // Angle
  21:control.c     ****     if (angleStepsRemaining > 0)
  75              		.loc 1 21 0
  76 0040 374B     		ldr	r3, .L9+12
  77 0042 1B78     		ldrb	r3, [r3]	@ zero_extendqisi2
  78 0044 5BB2     		sxtb	r3, r3
  79 0046 002B     		cmp	r3, #0
  80 0048 17DD     		ble	.L3
  22:control.c     ****     {
  23:control.c     ****         angleStepPin_Write(1);
  81              		.loc 1 23 0
  82 004a 0120     		movs	r0, #1
  83 004c FFF7FEFF 		bl	angleStepPin_Write
  84              	.LVL4:
  24:control.c     ****         CyDelayUs(50);
  85              		.loc 1 24 0
  86 0050 3220     		movs	r0, #50
  87 0052 FFF7FEFF 		bl	CyDelayUs
  88              	.LVL5:
  25:control.c     ****         angleStepPin_Write(0);
  89              		.loc 1 25 0
ARM GAS  C:\Users\peter\AppData\Local\Temp\cchDMZLP.s 			page 3


  90 0056 0020     		movs	r0, #0
  91 0058 FFF7FEFF 		bl	angleStepPin_Write
  92              	.LVL6:
  26:control.c     ****         angleStepsRemaining--;
  93              		.loc 1 26 0
  94 005c 304A     		ldr	r2, .L9+12
  95 005e 1378     		ldrb	r3, [r2]	@ zero_extendqisi2
  96 0060 5BB2     		sxtb	r3, r3
  97 0062 013B     		subs	r3, r3, #1
  98 0064 5BB2     		sxtb	r3, r3
  99 0066 1370     		strb	r3, [r2]
  27:control.c     ****         angleCurrentPosition += angleDirection;
 100              		.loc 1 27 0
 101 0068 2E4B     		ldr	r3, .L9+16
 102 006a 1B78     		ldrb	r3, [r3]	@ zero_extendqisi2
 103 006c 5AB2     		sxtb	r2, r3
 104 006e 2E49     		ldr	r1, .L9+20
 105 0070 0B78     		ldrb	r3, [r1]	@ zero_extendqisi2
 106 0072 5BB2     		sxtb	r3, r3
 107 0074 1344     		add	r3, r3, r2
 108 0076 5BB2     		sxtb	r3, r3
 109 0078 0B70     		strb	r3, [r1]
 110              	.L3:
  28:control.c     ****     }
  29:control.c     **** 
  30:control.c     ****     // Fire
  31:control.c     ****     if (fireStepsRemaining > 0)
 111              		.loc 1 31 0
 112 007a 2C4B     		ldr	r3, .L9+24
 113 007c 1B88     		ldrh	r3, [r3]
 114 007e 1BB2     		sxth	r3, r3
 115 0080 002B     		cmp	r3, #0
 116 0082 0EDD     		ble	.L4
  32:control.c     ****     {
  33:control.c     ****         fireStepPin_Write(1);
 117              		.loc 1 33 0
 118 0084 0120     		movs	r0, #1
 119 0086 FFF7FEFF 		bl	fireStepPin_Write
 120              	.LVL7:
  34:control.c     ****         CyDelayUs(50);
 121              		.loc 1 34 0
 122 008a 3220     		movs	r0, #50
 123 008c FFF7FEFF 		bl	CyDelayUs
 124              	.LVL8:
  35:control.c     ****         fireStepPin_Write(0);
 125              		.loc 1 35 0
 126 0090 0020     		movs	r0, #0
 127 0092 FFF7FEFF 		bl	fireStepPin_Write
 128              	.LVL9:
  36:control.c     ****         fireStepsRemaining--;
 129              		.loc 1 36 0
 130 0096 254A     		ldr	r2, .L9+24
 131 0098 1388     		ldrh	r3, [r2]
 132 009a 013B     		subs	r3, r3, #1
 133 009c 1BB2     		sxth	r3, r3
 134 009e 1380     		strh	r3, [r2]	@ movhi
 135 00a0 23E0     		b	.L5
ARM GAS  C:\Users\peter\AppData\Local\Temp\cchDMZLP.s 			page 4


 136              	.L4:
  37:control.c     ****     }
  38:control.c     ****     else if (fireInProgress && fireStepPhase == 0)
 137              		.loc 1 38 0
 138 00a2 234B     		ldr	r3, .L9+28
 139 00a4 1B78     		ldrb	r3, [r3]	@ zero_extendqisi2
 140 00a6 13F0FF0F 		tst	r3, #255
 141 00aa 11D0     		beq	.L6
 142              		.loc 1 38 0 is_stmt 0 discriminator 1
 143 00ac 214B     		ldr	r3, .L9+32
 144 00ae 1B78     		ldrb	r3, [r3]	@ zero_extendqisi2
 145 00b0 13F0FF0F 		tst	r3, #255
 146 00b4 0CD1     		bne	.L6
  39:control.c     ****     {
  40:control.c     ****         fireStepPhase = 1;
 147              		.loc 1 40 0 is_stmt 1
 148 00b6 0122     		movs	r2, #1
 149 00b8 1E4B     		ldr	r3, .L9+32
 150 00ba 1A70     		strb	r2, [r3]
  41:control.c     ****         fireDirection = -1;
 151              		.loc 1 41 0
 152 00bc FF22     		movs	r2, #255
 153 00be 1E4B     		ldr	r3, .L9+36
 154 00c0 1A70     		strb	r2, [r3]
  42:control.c     ****         fireDirPin_Write(0);
 155              		.loc 1 42 0
 156 00c2 0020     		movs	r0, #0
 157 00c4 FFF7FEFF 		bl	fireDirPin_Write
 158              	.LVL10:
  43:control.c     ****         fireStepsRemaining = FIRE_MAX_STEPS;
 159              		.loc 1 43 0
 160 00c8 4622     		movs	r2, #70
 161 00ca 184B     		ldr	r3, .L9+24
 162 00cc 1A80     		strh	r2, [r3]	@ movhi
 163 00ce 0CE0     		b	.L5
 164              	.L6:
  44:control.c     ****     }
  45:control.c     ****     else if (fireInProgress && fireStepPhase == 1)
 165              		.loc 1 45 0
 166 00d0 174B     		ldr	r3, .L9+28
 167 00d2 1B78     		ldrb	r3, [r3]	@ zero_extendqisi2
 168 00d4 13F0FF0F 		tst	r3, #255
 169 00d8 07D0     		beq	.L5
 170              		.loc 1 45 0 is_stmt 0 discriminator 1
 171 00da 164B     		ldr	r3, .L9+32
 172 00dc 1B78     		ldrb	r3, [r3]	@ zero_extendqisi2
 173 00de DBB2     		uxtb	r3, r3
 174 00e0 012B     		cmp	r3, #1
 175 00e2 02D1     		bne	.L5
  46:control.c     ****     {
  47:control.c     ****         fireInProgress = 0;
 176              		.loc 1 47 0 is_stmt 1
 177 00e4 0022     		movs	r2, #0
 178 00e6 124B     		ldr	r3, .L9+28
 179 00e8 1A70     		strb	r2, [r3]
 180              	.L5:
  48:control.c     ****     }
ARM GAS  C:\Users\peter\AppData\Local\Temp\cchDMZLP.s 			page 5


  49:control.c     **** 
  50:control.c     ****     // Stop timer hvis alt er færdigt
  51:control.c     ****     if (dialStepsRemaining == 0 && angleStepsRemaining == 0 && fireStepsRemaining == 0 && !fireInPr
 181              		.loc 1 51 0
 182 00ea 0A4B     		ldr	r3, .L9
 183 00ec 1B78     		ldrb	r3, [r3]	@ zero_extendqisi2
 184 00ee 5BB2     		sxtb	r3, r3
 185 00f0 73B9     		cbnz	r3, .L1
 186              		.loc 1 51 0 is_stmt 0 discriminator 1
 187 00f2 0B4B     		ldr	r3, .L9+12
 188 00f4 1B78     		ldrb	r3, [r3]	@ zero_extendqisi2
 189 00f6 5BB2     		sxtb	r3, r3
 190 00f8 53B9     		cbnz	r3, .L1
 191              		.loc 1 51 0 discriminator 2
 192 00fa 0C4B     		ldr	r3, .L9+24
 193 00fc 1B88     		ldrh	r3, [r3]
 194 00fe 1BB2     		sxth	r3, r3
 195 0100 33B9     		cbnz	r3, .L1
 196              		.loc 1 51 0 discriminator 3
 197 0102 0B4B     		ldr	r3, .L9+28
 198 0104 1B78     		ldrb	r3, [r3]	@ zero_extendqisi2
 199 0106 13F0FF0F 		tst	r3, #255
 200 010a 01D1     		bne	.L1
  52:control.c     ****     {
  53:control.c     ****         Timer_1_Stop();
 201              		.loc 1 53 0 is_stmt 1
 202 010c FFF7FEFF 		bl	Timer_1_Stop
 203              	.LVL11:
 204              	.L1:
 205 0110 08BD     		pop	{r3, pc}
 206              	.L10:
 207 0112 00BF     		.align	2
 208              	.L9:
 209 0114 00000000 		.word	dialStepsRemaining
 210 0118 00000000 		.word	dialDirection
 211 011c 00000000 		.word	dialCurrentPosition
 212 0120 00000000 		.word	angleStepsRemaining
 213 0124 00000000 		.word	angleDirection
 214 0128 00000000 		.word	angleCurrentPosition
 215 012c 00000000 		.word	fireStepsRemaining
 216 0130 00000000 		.word	fireInProgress
 217 0134 00000000 		.word	fireStepPhase
 218 0138 00000000 		.word	fireDirection
 219              		.cfi_endproc
 220              	.LFE63:
 221              		.size	Stepper_Timer_ISR_Handler, .-Stepper_Timer_ISR_Handler
 222              		.section	.text.initControlTimer,"ax",%progbits
 223              		.align	2
 224              		.global	initControlTimer
 225              		.thumb
 226              		.thumb_func
 227              		.type	initControlTimer, %function
 228              	initControlTimer:
 229              	.LFB64:
  54:control.c     ****     }
  55:control.c     **** }
  56:control.c     **** 
ARM GAS  C:\Users\peter\AppData\Local\Temp\cchDMZLP.s 			page 6


  57:control.c     **** void initControlTimer(void)
  58:control.c     **** {
 230              		.loc 1 58 0
 231              		.cfi_startproc
 232              		@ args = 0, pretend = 0, frame = 0
 233              		@ frame_needed = 0, uses_anonymous_args = 0
 234 0000 08B5     		push	{r3, lr}
 235              		.cfi_def_cfa_offset 8
 236              		.cfi_offset 3, -8
 237              		.cfi_offset 14, -4
  59:control.c     ****     Timer_1_Start();
 238              		.loc 1 59 0
 239 0002 FFF7FEFF 		bl	Timer_1_Start
 240              	.LVL12:
  60:control.c     ****     Timer_1_Stop();
 241              		.loc 1 60 0
 242 0006 FFF7FEFF 		bl	Timer_1_Stop
 243              	.LVL13:
  61:control.c     ****     stepper_isr_timer_StartEx(Stepper_Timer_ISR_Handler);
 244              		.loc 1 61 0
 245 000a 0248     		ldr	r0, .L13
 246 000c FFF7FEFF 		bl	stepper_isr_timer_StartEx
 247              	.LVL14:
 248 0010 08BD     		pop	{r3, pc}
 249              	.L14:
 250 0012 00BF     		.align	2
 251              	.L13:
 252 0014 00000000 		.word	Stepper_Timer_ISR_Handler
 253              		.cfi_endproc
 254              	.LFE64:
 255              		.size	initControlTimer, .-initControlTimer
 256              		.text
 257              	.Letext0:
 258              		.file 2 "c:\\program files (x86)\\cypress\\psoc creator\\4.4\\psoc creator\\import\\gnu\\arm\\5.4.
 259              		.file 3 "c:\\program files (x86)\\cypress\\psoc creator\\4.4\\psoc creator\\import\\gnu\\arm\\5.4.
 260              		.file 4 "Generated_Source\\PSoC5/cytypes.h"
 261              		.file 5 "Generated_Source\\PSoC5/core_cm3.h"
 262              		.file 6 "stepper.h"
 263              		.file 7 "firing.h"
 264              		.file 8 "Generated_Source\\PSoC5/Timer_1.h"
 265              		.file 9 "Generated_Source\\PSoC5/dialStepPin.h"
 266              		.file 10 "Generated_Source\\PSoC5/CyLib.h"
 267              		.file 11 "Generated_Source\\PSoC5/angleStepPin.h"
 268              		.file 12 "Generated_Source\\PSoC5/fireStepPin.h"
 269              		.file 13 "Generated_Source\\PSoC5/fireDirPin.h"
 270              		.file 14 "Generated_Source\\PSoC5/stepper_isr_timer.h"