ARM GAS  C:\Users\Askja\AppData\Local\Temp\ccmKJXm5.s 			page 1


   1              		.syntax unified
   2              		.cpu cortex-m3
   3              		.fpu softvfp
   4              		.eabi_attribute 20, 1
   5              		.eabi_attribute 21, 1
   6              		.eabi_attribute 23, 3
   7              		.eabi_attribute 24, 1
   8              		.eabi_attribute 25, 1
   9              		.eabi_attribute 26, 1
  10              		.eabi_attribute 30, 1
  11              		.eabi_attribute 34, 1
  12              		.eabi_attribute 18, 4
  13              		.thumb
  14              		.syntax unified
  15              		.file	"main.c"
  16              		.text
  17              	.Ltext0:
  18              		.cfi_sections	.debug_frame
  19              		.section	.text.main,"ax",%progbits
  20              		.align	2
  21              		.global	main
  22              		.thumb
  23              		.thumb_func
  24              		.type	main, %function
  25              	main:
  26              	.LFB63:
  27              		.file 1 "main.c"
   1:main.c        **** /* ========================================
   2:main.c        ****  *
   3:main.c        ****  * Copyright YOUR COMPANY, THE YEAR
   4:main.c        ****  * All Rights Reserved
   5:main.c        ****  * UNPUBLISHED, LICENSED SOFTWARE.
   6:main.c        ****  *
   7:main.c        ****  * CONFIDENTIAL AND PROPRIETARY INFORMATION
   8:main.c        ****  * WHICH IS THE PROPERTY OF your company.
   9:main.c        ****  *
  10:main.c        ****  * ========================================
  11:main.c        **** */
  12:main.c        **** #include "project.h"
  13:main.c        **** 
  14:main.c        **** // Declaration of global variables
  15:main.c        **** #define PWM_MAX_DUTY 100 // Maksimal Duty cycle
  16:main.c        **** #define PWM_MIN_DUTY 0   // Minimum Duty cycle
  17:main.c        **** 
  18:main.c        **** // Initialisering af funktioner
  19:main.c        **** CY_ISR_PROTO(ISR_UART_rx_handler);
  20:main.c        **** void handleByteReceived(uint8_t byteReceived);
  21:main.c        **** // void decreaseSpeed(void);
  22:main.c        **** // void increaseSpeed(void);
  23:main.c        **** void driveForwards(void);
  24:main.c        **** void driveBackwards(void);
  25:main.c        **** void stop(void);
  26:main.c        **** 
  27:main.c        **** 
  28:main.c        **** 
  29:main.c        **** int main(void)
  30:main.c        **** {
ARM GAS  C:\Users\Askja\AppData\Local\Temp\ccmKJXm5.s 			page 2


  28              		.loc 1 30 0
  29              		.cfi_startproc
  30              		@ Volatile: function does not return.
  31              		@ args = 0, pretend = 0, frame = 0
  32              		@ frame_needed = 0, uses_anonymous_args = 0
  33 0000 08B5     		push	{r3, lr}
  34              		.cfi_def_cfa_offset 8
  35              		.cfi_offset 3, -8
  36              		.cfi_offset 14, -4
  31:main.c        ****     CyGlobalIntEnable;                        /* Enable global interrupts. */
  37              		.loc 1 31 0
  38              		.syntax unified
  39              	@ 31 "main.c" 1
  40 0002 62B6     		CPSIE   i
  41              	@ 0 "" 2
  32:main.c        ****     isr_uart_rx_StartEx(ISR_UART_rx_handler); // Start af Interrupt Service Routine for UART_Rx
  42              		.loc 1 32 0
  43              		.thumb
  44              		.syntax unified
  45 0004 0248     		ldr	r0, .L4
  46 0006 FFF7FEFF 		bl	isr_uart_rx_StartEx
  47              	.LVL0:
  33:main.c        ****     UART_Start();                           // Initialisering af UART_1
  48              		.loc 1 33 0
  49 000a FFF7FEFF 		bl	UART_Start
  50              	.LVL1:
  51              	.L2:
  52 000e FEE7     		b	.L2
  53              	.L5:
  54              		.align	2
  55              	.L4:
  56 0010 00000000 		.word	ISR_UART_rx_handler
  57              		.cfi_endproc
  58              	.LFE63:
  59              		.size	main, .-main
  60              		.section	.text.driveForwards,"ax",%progbits
  61              		.align	2
  62              		.global	driveForwards
  63              		.thumb
  64              		.thumb_func
  65              		.type	driveForwards, %function
  66              	driveForwards:
  67              	.LFB66:
  34:main.c        ****     // A_ENABLE_Write(0);
  35:main.c        ****     // B_ENABLE_Write(0);
  36:main.c        ****     /* Place your initialization/startup code here (e.g. MyInst_Start()) */
  37:main.c        **** 
  38:main.c        ****     for(;;)
  39:main.c        ****     {
  40:main.c        ****         /* Place your application code here. */
  41:main.c        ****     }
  42:main.c        **** }
  43:main.c        **** 
  44:main.c        **** CY_ISR(ISR_UART_rx_handler)
  45:main.c        **** {
  46:main.c        ****     uint8_t bytesToRead = UART_GetRxBufferSize();
  47:main.c        ****     while (bytesToRead > 0)
ARM GAS  C:\Users\Askja\AppData\Local\Temp\ccmKJXm5.s 			page 3


  48:main.c        ****     {
  49:main.c        ****         uint8_t byteReceived = UART_ReadRxData();
  50:main.c        ****         UART_WriteTxData(byteReceived); // echo back
  51:main.c        ****         
  52:main.c        ****         handleByteReceived(byteReceived);
  53:main.c        ****         
  54:main.c        ****         bytesToRead--;
  55:main.c        ****     }
  56:main.c        **** }
  57:main.c        **** 
  58:main.c        **** void handleByteReceived(uint8_t byteReceived)
  59:main.c        **** {
  60:main.c        ****        switch(byteReceived) // Switch statements til UART kommunikation med keyboard knapper.
  61:main.c        ****     {
  62:main.c        ****         case '1' :
  63:main.c        ****         {
  64:main.c        ****             driveForwards();
  65:main.c        ****         }
  66:main.c        ****         break;
  67:main.c        ****         case '2' :
  68:main.c        ****         {
  69:main.c        ****             driveBackwards();
  70:main.c        ****         }
  71:main.c        ****         break;
  72:main.c        ****         case '0' :
  73:main.c        ****         {
  74:main.c        ****             stop();
  75:main.c        ****             
  76:main.c        ****         }
  77:main.c        ****         break;
  78:main.c        ****         default :
  79:main.c        ****         {
  80:main.c        ****             // nothing
  81:main.c        ****         }
  82:main.c        ****         break;
  83:main.c        ****     }
  84:main.c        **** }
  85:main.c        **** 
  86:main.c        **** void driveForwards()
  87:main.c        **** {
  68              		.loc 1 87 0
  69              		.cfi_startproc
  70              		@ args = 0, pretend = 0, frame = 0
  71              		@ frame_needed = 0, uses_anonymous_args = 0
  72 0000 08B5     		push	{r3, lr}
  73              		.cfi_def_cfa_offset 8
  74              		.cfi_offset 3, -8
  75              		.cfi_offset 14, -4
  88:main.c        ****     // Sætter koerselsretning til fremad
  89:main.c        ****     UART_PutString("Set direction: Forwards\r\n");
  76              		.loc 1 89 0
  77 0002 0848     		ldr	r0, .L8
  78 0004 FFF7FEFF 		bl	UART_PutString
  79              	.LVL2:
  90:main.c        ****     IN1_Write(0);
  80              		.loc 1 90 0
  81 0008 0020     		movs	r0, #0
ARM GAS  C:\Users\Askja\AppData\Local\Temp\ccmKJXm5.s 			page 4


  82 000a FFF7FEFF 		bl	IN1_Write
  83              	.LVL3:
  91:main.c        ****     IN2_Write(1);
  84              		.loc 1 91 0
  85 000e 0120     		movs	r0, #1
  86 0010 FFF7FEFF 		bl	IN2_Write
  87              	.LVL4:
  92:main.c        ****     IN3_Write(0);
  88              		.loc 1 92 0
  89 0014 0020     		movs	r0, #0
  90 0016 FFF7FEFF 		bl	IN3_Write
  91              	.LVL5:
  93:main.c        ****     IN4_Write(1);
  92              		.loc 1 93 0
  93 001a 0120     		movs	r0, #1
  94 001c FFF7FEFF 		bl	IN4_Write
  95              	.LVL6:
  96 0020 08BD     		pop	{r3, pc}
  97              	.L9:
  98 0022 00BF     		.align	2
  99              	.L8:
 100 0024 00000000 		.word	.LC0
 101              		.cfi_endproc
 102              	.LFE66:
 103              		.size	driveForwards, .-driveForwards
 104              		.section	.text.driveBackwards,"ax",%progbits
 105              		.align	2
 106              		.global	driveBackwards
 107              		.thumb
 108              		.thumb_func
 109              		.type	driveBackwards, %function
 110              	driveBackwards:
 111              	.LFB67:
  94:main.c        **** }
  95:main.c        **** 
  96:main.c        **** void driveBackwards()
  97:main.c        **** {
 112              		.loc 1 97 0
 113              		.cfi_startproc
 114              		@ args = 0, pretend = 0, frame = 0
 115              		@ frame_needed = 0, uses_anonymous_args = 0
 116 0000 08B5     		push	{r3, lr}
 117              		.cfi_def_cfa_offset 8
 118              		.cfi_offset 3, -8
 119              		.cfi_offset 14, -4
  98:main.c        ****     // Sætter koerselsretning til baglaens
  99:main.c        ****     UART_PutString("Set direction: Backwards\r\n");
 120              		.loc 1 99 0
 121 0002 0848     		ldr	r0, .L12
 122 0004 FFF7FEFF 		bl	UART_PutString
 123              	.LVL7:
 100:main.c        ****     IN1_Write(1);
 124              		.loc 1 100 0
 125 0008 0120     		movs	r0, #1
 126 000a FFF7FEFF 		bl	IN1_Write
 127              	.LVL8:
 101:main.c        ****     IN2_Write(0);
ARM GAS  C:\Users\Askja\AppData\Local\Temp\ccmKJXm5.s 			page 5


 128              		.loc 1 101 0
 129 000e 0020     		movs	r0, #0
 130 0010 FFF7FEFF 		bl	IN2_Write
 131              	.LVL9:
 102:main.c        ****     IN3_Write(1);
 132              		.loc 1 102 0
 133 0014 0120     		movs	r0, #1
 134 0016 FFF7FEFF 		bl	IN3_Write
 135              	.LVL10:
 103:main.c        ****     IN4_Write(0);
 136              		.loc 1 103 0
 137 001a 0020     		movs	r0, #0
 138 001c FFF7FEFF 		bl	IN4_Write
 139              	.LVL11:
 140 0020 08BD     		pop	{r3, pc}
 141              	.L13:
 142 0022 00BF     		.align	2
 143              	.L12:
 144 0024 1C000000 		.word	.LC1
 145              		.cfi_endproc
 146              	.LFE67:
 147              		.size	driveBackwards, .-driveBackwards
 148              		.section	.text.stop,"ax",%progbits
 149              		.align	2
 150              		.global	stop
 151              		.thumb
 152              		.thumb_func
 153              		.type	stop, %function
 154              	stop:
 155              	.LFB68:
 104:main.c        ****     
 105:main.c        **** }
 106:main.c        **** 
 107:main.c        **** void stop() {
 156              		.loc 1 107 0
 157              		.cfi_startproc
 158              		@ args = 0, pretend = 0, frame = 0
 159              		@ frame_needed = 0, uses_anonymous_args = 0
 160 0000 08B5     		push	{r3, lr}
 161              		.cfi_def_cfa_offset 8
 162              		.cfi_offset 3, -8
 163              		.cfi_offset 14, -4
 108:main.c        ****     // Sætter alle LOGIC_Inputs til 1 for at stoppe/bremse.
 109:main.c        ****     UART_PutString("Stop \r\n");
 164              		.loc 1 109 0
 165 0002 0848     		ldr	r0, .L16
 166 0004 FFF7FEFF 		bl	UART_PutString
 167              	.LVL12:
 110:main.c        ****     IN1_Write(1);
 168              		.loc 1 110 0
 169 0008 0120     		movs	r0, #1
 170 000a FFF7FEFF 		bl	IN1_Write
 171              	.LVL13:
 111:main.c        ****     IN2_Write(1);
 172              		.loc 1 111 0
 173 000e 0120     		movs	r0, #1
 174 0010 FFF7FEFF 		bl	IN2_Write
ARM GAS  C:\Users\Askja\AppData\Local\Temp\ccmKJXm5.s 			page 6


 175              	.LVL14:
 112:main.c        ****     IN3_Write(1);
 176              		.loc 1 112 0
 177 0014 0120     		movs	r0, #1
 178 0016 FFF7FEFF 		bl	IN3_Write
 179              	.LVL15:
 113:main.c        ****     IN4_Write(1);
 180              		.loc 1 113 0
 181 001a 0120     		movs	r0, #1
 182 001c FFF7FEFF 		bl	IN4_Write
 183              	.LVL16:
 184 0020 08BD     		pop	{r3, pc}
 185              	.L17:
 186 0022 00BF     		.align	2
 187              	.L16:
 188 0024 38000000 		.word	.LC2
 189              		.cfi_endproc
 190              	.LFE68:
 191              		.size	stop, .-stop
 192              		.section	.text.handleByteReceived,"ax",%progbits
 193              		.align	2
 194              		.global	handleByteReceived
 195              		.thumb
 196              		.thumb_func
 197              		.type	handleByteReceived, %function
 198              	handleByteReceived:
 199              	.LFB65:
  59:main.c        ****        switch(byteReceived) // Switch statements til UART kommunikation med keyboard knapper.
 200              		.loc 1 59 0
 201              		.cfi_startproc
 202              		@ args = 0, pretend = 0, frame = 0
 203              		@ frame_needed = 0, uses_anonymous_args = 0
 204              	.LVL17:
 205 0000 08B5     		push	{r3, lr}
 206              		.cfi_def_cfa_offset 8
 207              		.cfi_offset 3, -8
 208              		.cfi_offset 14, -4
  60:main.c        ****     {
 209              		.loc 1 60 0
 210 0002 3128     		cmp	r0, #49
 211 0004 04D0     		beq	.L20
 212 0006 3228     		cmp	r0, #50
 213 0008 05D0     		beq	.L21
 214 000a 3028     		cmp	r0, #48
 215 000c 08D1     		bne	.L18
 216 000e 05E0     		b	.L22
 217              	.L20:
  64:main.c        ****         }
 218              		.loc 1 64 0
 219 0010 FFF7FEFF 		bl	driveForwards
 220              	.LVL18:
  66:main.c        ****         case '2' :
 221              		.loc 1 66 0
 222 0014 08BD     		pop	{r3, pc}
 223              	.LVL19:
 224              	.L21:
  69:main.c        ****         }
ARM GAS  C:\Users\Askja\AppData\Local\Temp\ccmKJXm5.s 			page 7


 225              		.loc 1 69 0
 226 0016 FFF7FEFF 		bl	driveBackwards
 227              	.LVL20:
  71:main.c        ****         case '0' :
 228              		.loc 1 71 0
 229 001a 08BD     		pop	{r3, pc}
 230              	.LVL21:
 231              	.L22:
  74:main.c        ****             
 232              		.loc 1 74 0
 233 001c FFF7FEFF 		bl	stop
 234              	.LVL22:
 235              	.L18:
 236 0020 08BD     		pop	{r3, pc}
 237              		.cfi_endproc
 238              	.LFE65:
 239              		.size	handleByteReceived, .-handleByteReceived
 240 0022 00BF     		.section	.text.ISR_UART_rx_handler,"ax",%progbits
 241              		.align	2
 242              		.global	ISR_UART_rx_handler
 243              		.thumb
 244              		.thumb_func
 245              		.type	ISR_UART_rx_handler, %function
 246              	ISR_UART_rx_handler:
 247              	.LFB64:
  45:main.c        ****     uint8_t bytesToRead = UART_GetRxBufferSize();
 248              		.loc 1 45 0
 249              		.cfi_startproc
 250              		@ args = 0, pretend = 0, frame = 0
 251              		@ frame_needed = 0, uses_anonymous_args = 0
 252 0000 38B5     		push	{r3, r4, r5, lr}
 253              		.cfi_def_cfa_offset 16
 254              		.cfi_offset 3, -16
 255              		.cfi_offset 4, -12
 256              		.cfi_offset 5, -8
 257              		.cfi_offset 14, -4
  46:main.c        ****     while (bytesToRead > 0)
 258              		.loc 1 46 0
 259 0002 FFF7FEFF 		bl	UART_GetRxBufferSize
 260              	.LVL23:
 261 0006 0446     		mov	r4, r0
 262              	.LVL24:
  47:main.c        ****     {
 263              		.loc 1 47 0
 264 0008 09E0     		b	.L25
 265              	.L26:
 266              	.LBB2:
  49:main.c        ****         UART_WriteTxData(byteReceived); // echo back
 267              		.loc 1 49 0
 268 000a FFF7FEFF 		bl	UART_ReadRxData
 269              	.LVL25:
 270 000e 0546     		mov	r5, r0
 271              	.LVL26:
  50:main.c        ****         
 272              		.loc 1 50 0
 273 0010 FFF7FEFF 		bl	UART_WriteTxData
 274              	.LVL27:
ARM GAS  C:\Users\Askja\AppData\Local\Temp\ccmKJXm5.s 			page 8


  52:main.c        ****         
 275              		.loc 1 52 0
 276 0014 2846     		mov	r0, r5
 277 0016 FFF7FEFF 		bl	handleByteReceived
 278              	.LVL28:
  54:main.c        ****     }
 279              		.loc 1 54 0
 280 001a 013C     		subs	r4, r4, #1
 281              	.LVL29:
 282 001c E4B2     		uxtb	r4, r4
 283              	.LVL30:
 284              	.L25:
 285              	.LBE2:
  47:main.c        ****     {
 286              		.loc 1 47 0
 287 001e 002C     		cmp	r4, #0
 288 0020 F3D1     		bne	.L26
  56:main.c        **** 
 289              		.loc 1 56 0
 290 0022 38BD     		pop	{r3, r4, r5, pc}
 291              		.cfi_endproc
 292              	.LFE64:
 293              		.size	ISR_UART_rx_handler, .-ISR_UART_rx_handler
 294              		.section	.rodata.str1.4,"aMS",%progbits,1
 295              		.align	2
 296              	.LC0:
 297 0000 53657420 		.ascii	"Set direction: Forwards\015\012\000"
 297      64697265 
 297      6374696F 
 297      6E3A2046 
 297      6F727761 
 298 001a 0000     		.space	2
 299              	.LC1:
 300 001c 53657420 		.ascii	"Set direction: Backwards\015\012\000"
 300      64697265 
 300      6374696F 
 300      6E3A2042 
 300      61636B77 
 301 0037 00       		.space	1
 302              	.LC2:
 303 0038 53746F70 		.ascii	"Stop \015\012\000"
 303      200D0A00 
 304              		.text
 305              	.Letext0:
 306              		.file 2 "c:\\program files (x86)\\cypress\\psoc creator\\4.4\\psoc creator\\import\\gnu\\arm\\5.4.
 307              		.file 3 "c:\\program files (x86)\\cypress\\psoc creator\\4.4\\psoc creator\\import\\gnu\\arm\\5.4.
 308              		.file 4 "Generated_Source\\PSoC5/isr_uart_rx.h"
 309              		.file 5 "Generated_Source\\PSoC5/UART.h"
 310              		.file 6 "Generated_Source\\PSoC5/IN1.h"
 311              		.file 7 "Generated_Source\\PSoC5/IN2.h"
 312              		.file 8 "Generated_Source\\PSoC5/IN3.h"
 313              		.file 9 "Generated_Source\\PSoC5/IN4.h"
 314              		.file 10 "Generated_Source\\PSoC5/core_cm3.h"