ARM GAS  C:\Users\peter\AppData\Local\Temp\ccphISwG.s 			page 1


   1              		.syntax unified
   2              		.cpu cortex-m3
   3              		.fpu softvfp
   4              		.eabi_attribute 20, 1
   5              		.eabi_attribute 21, 1
   6              		.eabi_attribute 23, 3
   7              		.eabi_attribute 24, 1
   8              		.eabi_attribute 25, 1
   9              		.eabi_attribute 26, 1
  10              		.eabi_attribute 30, 1
  11              		.eabi_attribute 34, 1
  12              		.eabi_attribute 18, 4
  13              		.thumb
  14              		.syntax unified
  15              		.file	"control.c"
  16              		.text
  17              	.Ltext0:
  18              		.cfi_sections	.debug_frame
  19              		.section	.text.initControlTimer,"ax",%progbits
  20              		.align	2
  21              		.global	initControlTimer
  22              		.thumb
  23              		.thumb_func
  24              		.type	initControlTimer, %function
  25              	initControlTimer:
  26              	.LFB64:
  27              		.file 1 "control.c"
   1:control.c     **** #include "control.h"
   2:control.c     **** #include "stepper.h"
   3:control.c     **** #include "firing.h"
   4:control.c     **** 
   5:control.c     **** // === TIMER ISR ===
   6:control.c     **** // Denne interrupt kaldes periodisk af Timer_Stepper.
   7:control.c     **** // Den kalder nu kun én funktion per subsystem, som hver især håndterer deres eget tick.
   8:control.c     **** CY_ISR(Stepper_Timer_ISR_Handler)
   9:control.c     **** {
  10:control.c     ****     Timer_Stepper_ReadStatusRegister();  // Ryd interrupt-flag
  11:control.c     **** 
  12:control.c     ****     // Håndter et step for dial og angle motorer
  13:control.c     ****     stepperTick();
  14:control.c     **** 
  15:control.c     ****     // Håndter et step for affyringsmekanisme
  16:control.c     ****     firingStepperTick();
  17:control.c     **** 
  18:control.c     ****     // Stop timeren hvis alt arbejde er færdigt
  19:control.c     ****     if (isControlIdle())
  20:control.c     ****     {
  21:control.c     ****         stopStepperTimer();
  22:control.c     ****     }
  23:control.c     **** }
  24:control.c     **** 
  25:control.c     **** // Initialiser timer og tilknyt ISR
  26:control.c     **** void initControlTimer(void)
  27:control.c     **** {
  28              		.loc 1 27 0
  29              		.cfi_startproc
  30              		@ args = 0, pretend = 0, frame = 0
ARM GAS  C:\Users\peter\AppData\Local\Temp\ccphISwG.s 			page 2


  31              		@ frame_needed = 0, uses_anonymous_args = 0
  32 0000 08B5     		push	{r3, lr}
  33              		.cfi_def_cfa_offset 8
  34              		.cfi_offset 3, -8
  35              		.cfi_offset 14, -4
  28:control.c     ****     Timer_Stepper_Start();  // Start én gang for init
  36              		.loc 1 28 0
  37 0002 FFF7FEFF 		bl	Timer_Stepper_Start
  38              	.LVL0:
  29:control.c     ****     Timer_Stepper_Stop();   // Stop med det samme
  39              		.loc 1 29 0
  40 0006 FFF7FEFF 		bl	Timer_Stepper_Stop
  41              	.LVL1:
  30:control.c     ****     stepper_isr_timer_StartEx(Stepper_Timer_ISR_Handler);
  42              		.loc 1 30 0
  43 000a 0248     		ldr	r0, .L3
  44 000c FFF7FEFF 		bl	stepper_isr_timer_StartEx
  45              	.LVL2:
  46 0010 08BD     		pop	{r3, pc}
  47              	.L4:
  48 0012 00BF     		.align	2
  49              	.L3:
  50 0014 00000000 		.word	Stepper_Timer_ISR_Handler
  51              		.cfi_endproc
  52              	.LFE64:
  53              		.size	initControlTimer, .-initControlTimer
  54              		.section	.text.startStepperTimerWithPeriod,"ax",%progbits
  55              		.align	2
  56              		.global	startStepperTimerWithPeriod
  57              		.thumb
  58              		.thumb_func
  59              		.type	startStepperTimerWithPeriod, %function
  60              	startStepperTimerWithPeriod:
  61              	.LFB65:
  31:control.c     **** }
  32:control.c     **** 
  33:control.c     **** // Start timeren med ny periode og nulstil tæller
  34:control.c     **** void startStepperTimerWithPeriod(uint16_t period)
  35:control.c     **** {
  62              		.loc 1 35 0
  63              		.cfi_startproc
  64              		@ args = 0, pretend = 0, frame = 0
  65              		@ frame_needed = 0, uses_anonymous_args = 0
  66              	.LVL3:
  67 0000 10B5     		push	{r4, lr}
  68              		.cfi_def_cfa_offset 8
  69              		.cfi_offset 4, -8
  70              		.cfi_offset 14, -4
  71 0002 0446     		mov	r4, r0
  36:control.c     ****     Timer_Stepper_Stop();
  72              		.loc 1 36 0
  73 0004 FFF7FEFF 		bl	Timer_Stepper_Stop
  74              	.LVL4:
  37:control.c     ****     Timer_Stepper_WritePeriod(period);
  75              		.loc 1 37 0
  76 0008 E0B2     		uxtb	r0, r4
  77 000a FFF7FEFF 		bl	Timer_Stepper_WritePeriod
ARM GAS  C:\Users\peter\AppData\Local\Temp\ccphISwG.s 			page 3


  78              	.LVL5:
  38:control.c     ****     Timer_Stepper_WriteCounter(0);
  79              		.loc 1 38 0
  80 000e 0020     		movs	r0, #0
  81 0010 FFF7FEFF 		bl	Timer_Stepper_WriteCounter
  82              	.LVL6:
  39:control.c     ****     Timer_Stepper_Start();
  83              		.loc 1 39 0
  84 0014 FFF7FEFF 		bl	Timer_Stepper_Start
  85              	.LVL7:
  86 0018 10BD     		pop	{r4, pc}
  87              		.cfi_endproc
  88              	.LFE65:
  89              		.size	startStepperTimerWithPeriod, .-startStepperTimerWithPeriod
  90 001a 00BF     		.section	.text.stopStepperTimer,"ax",%progbits
  91              		.align	2
  92              		.global	stopStepperTimer
  93              		.thumb
  94              		.thumb_func
  95              		.type	stopStepperTimer, %function
  96              	stopStepperTimer:
  97              	.LFB66:
  40:control.c     **** }
  41:control.c     **** 
  42:control.c     **** // Stop timeren
  43:control.c     **** void stopStepperTimer(void)
  44:control.c     **** {
  98              		.loc 1 44 0
  99              		.cfi_startproc
 100              		@ args = 0, pretend = 0, frame = 0
 101              		@ frame_needed = 0, uses_anonymous_args = 0
 102 0000 08B5     		push	{r3, lr}
 103              		.cfi_def_cfa_offset 8
 104              		.cfi_offset 3, -8
 105              		.cfi_offset 14, -4
  45:control.c     ****     Timer_Stepper_Stop();
 106              		.loc 1 45 0
 107 0002 FFF7FEFF 		bl	Timer_Stepper_Stop
 108              	.LVL8:
 109 0006 08BD     		pop	{r3, pc}
 110              		.cfi_endproc
 111              	.LFE66:
 112              		.size	stopStepperTimer, .-stopStepperTimer
 113              		.section	.text.isControlIdle,"ax",%progbits
 114              		.align	2
 115              		.global	isControlIdle
 116              		.thumb
 117              		.thumb_func
 118              		.type	isControlIdle, %function
 119              	isControlIdle:
 120              	.LFB67:
  46:control.c     **** }
  47:control.c     **** 
  48:control.c     **** // Returnerer 1 hvis alle subsystemer er færdige (idle), ellers 0
  49:control.c     **** uint8 isControlIdle(void)
  50:control.c     **** {
 121              		.loc 1 50 0
ARM GAS  C:\Users\peter\AppData\Local\Temp\ccphISwG.s 			page 4


 122              		.cfi_startproc
 123              		@ args = 0, pretend = 0, frame = 0
 124              		@ frame_needed = 0, uses_anonymous_args = 0
 125 0000 08B5     		push	{r3, lr}
 126              		.cfi_def_cfa_offset 8
 127              		.cfi_offset 3, -8
 128              		.cfi_offset 14, -4
  51:control.c     ****     return (stepperIsIdle() && firingIsIdle()) ? 1 : 0;
 129              		.loc 1 51 0
 130 0002 FFF7FEFF 		bl	stepperIsIdle
 131              	.LVL9:
 132 0006 20B1     		cbz	r0, .L11
 133              		.loc 1 51 0 is_stmt 0 discriminator 1
 134 0008 FFF7FEFF 		bl	firingIsIdle
 135              	.LVL10:
 136 000c 18B1     		cbz	r0, .L12
 137              		.loc 1 51 0
 138 000e 0120     		movs	r0, #1
 139 0010 08BD     		pop	{r3, pc}
 140              	.L11:
 141 0012 0020     		movs	r0, #0
 142 0014 08BD     		pop	{r3, pc}
 143              	.L12:
 144 0016 0020     		movs	r0, #0
  52:control.c     **** }
 145              		.loc 1 52 0 is_stmt 1
 146 0018 08BD     		pop	{r3, pc}
 147              		.cfi_endproc
 148              	.LFE67:
 149              		.size	isControlIdle, .-isControlIdle
 150 001a 00BF     		.section	.text.Stepper_Timer_ISR_Handler,"ax",%progbits
 151              		.align	2
 152              		.global	Stepper_Timer_ISR_Handler
 153              		.thumb
 154              		.thumb_func
 155              		.type	Stepper_Timer_ISR_Handler, %function
 156              	Stepper_Timer_ISR_Handler:
 157              	.LFB63:
   9:control.c     ****     Timer_Stepper_ReadStatusRegister();  // Ryd interrupt-flag
 158              		.loc 1 9 0
 159              		.cfi_startproc
 160              		@ args = 0, pretend = 0, frame = 0
 161              		@ frame_needed = 0, uses_anonymous_args = 0
 162 0000 08B5     		push	{r3, lr}
 163              		.cfi_def_cfa_offset 8
 164              		.cfi_offset 3, -8
 165              		.cfi_offset 14, -4
  10:control.c     **** 
 166              		.loc 1 10 0
 167 0002 FFF7FEFF 		bl	Timer_Stepper_ReadStatusRegister
 168              	.LVL11:
  13:control.c     **** 
 169              		.loc 1 13 0
 170 0006 FFF7FEFF 		bl	stepperTick
 171              	.LVL12:
  16:control.c     **** 
 172              		.loc 1 16 0
ARM GAS  C:\Users\peter\AppData\Local\Temp\ccphISwG.s 			page 5


 173 000a FFF7FEFF 		bl	firingStepperTick
 174              	.LVL13:
  19:control.c     ****     {
 175              		.loc 1 19 0
 176 000e FFF7FEFF 		bl	isControlIdle
 177              	.LVL14:
 178 0012 08B1     		cbz	r0, .L14
  21:control.c     ****     }
 179              		.loc 1 21 0
 180 0014 FFF7FEFF 		bl	stopStepperTimer
 181              	.LVL15:
 182              	.L14:
 183 0018 08BD     		pop	{r3, pc}
 184              		.cfi_endproc
 185              	.LFE63:
 186              		.size	Stepper_Timer_ISR_Handler, .-Stepper_Timer_ISR_Handler
 187 001a 00BF     		.text
 188              	.Letext0:
 189              		.file 2 "c:\\program files (x86)\\cypress\\psoc creator\\4.4\\psoc creator\\import\\gnu\\arm\\5.4.
 190              		.file 3 "c:\\program files (x86)\\cypress\\psoc creator\\4.4\\psoc creator\\import\\gnu\\arm\\5.4.
 191              		.file 4 "Generated_Source\\PSoC5/cytypes.h"
 192              		.file 5 "Generated_Source\\PSoC5/Timer_Stepper.h"
 193              		.file 6 "Generated_Source\\PSoC5/stepper_isr_timer.h"
 194              		.file 7 "stepper.h"
 195              		.file 8 "firing.h"
 196              		.file 9 "Generated_Source\\PSoC5/core_cm3.h"