ARM GAS  C:\Users\Totos\AppData\Local\Temp\ccE5q9Yq.s 			page 1


   1              		.syntax unified
   2              		.cpu cortex-m3
   3              		.fpu softvfp
   4              		.eabi_attribute 20, 1
   5              		.eabi_attribute 21, 1
   6              		.eabi_attribute 23, 3
   7              		.eabi_attribute 24, 1
   8              		.eabi_attribute 25, 1
   9              		.eabi_attribute 26, 1
  10              		.eabi_attribute 30, 1
  11              		.eabi_attribute 34, 1
  12              		.eabi_attribute 18, 4
  13              		.thumb
  14              		.syntax unified
  15              		.file	"distanceSensor.c"
  16              		.text
  17              	.Ltext0:
  18              		.cfi_sections	.debug_frame
  19              		.section	.text.echo_isr,"ax",%progbits
  20              		.align	2
  21              		.global	echo_isr
  22              		.thumb
  23              		.thumb_func
  24              		.type	echo_isr, %function
  25              	echo_isr:
  26              	.LFB64:
  27              		.file 1 "distanceSensor.c"
   1:distanceSensor.c **** /* ========================================
   2:distanceSensor.c ****  * HC-SR04 test program for CY8CKIT-059
   3:distanceSensor.c ****  * For this appliation, VDD must be set to 5V
   4:distanceSensor.c ****  * ========================================
   5:distanceSensor.c **** */
   6:distanceSensor.c **** 
   7:distanceSensor.c **** #include "distanceSensor.h"
   8:distanceSensor.c **** #include <stdio.h>
   9:distanceSensor.c **** 
  10:distanceSensor.c **** 
  11:distanceSensor.c **** // Reference
  12:distanceSensor.c **** /* https://keisan.casio.jp/exec/system/1231998943 */
  13:distanceSensor.c **** #define MACH    343.4    /* Mach 1.0 at 20.0 */
  14:distanceSensor.c **** // Tester
  15:distanceSensor.c **** 
  16:distanceSensor.c **** static volatile uint16_t duration = 0 ;
  17:distanceSensor.c **** static volatile int      echo_flag = 0 ;
  18:distanceSensor.c **** static int obstruct = 0; // 1 if distance is below the threshold, 0 otherwise
  19:distanceSensor.c **** 
  20:distanceSensor.c **** char str[128] ; /* print buffer */
  21:distanceSensor.c **** 
  22:distanceSensor.c **** CY_ISR(echo_isr)
  23:distanceSensor.c **** {
  28              		.loc 1 23 0
  29              		.cfi_startproc
  30              		@ args = 0, pretend = 0, frame = 0
  31              		@ frame_needed = 0, uses_anonymous_args = 0
  32 0000 08B5     		push	{r3, lr}
  33              		.cfi_def_cfa_offset 8
  34              		.cfi_offset 3, -8
ARM GAS  C:\Users\Totos\AppData\Local\Temp\ccE5q9Yq.s 			page 2


  35              		.cfi_offset 14, -4
  24:distanceSensor.c ****     isr_echo_int_ClearPending() ;
  36              		.loc 1 24 0
  37 0002 FFF7FEFF 		bl	isr_echo_int_ClearPending
  38              	.LVL0:
  25:distanceSensor.c ****     isr_echo_int_Disable() ;
  39              		.loc 1 25 0
  40 0006 FFF7FEFF 		bl	isr_echo_int_Disable
  41              	.LVL1:
  26:distanceSensor.c ****     duration = Counter_ReadCounter() ;
  42              		.loc 1 26 0
  43 000a FFF7FEFF 		bl	Counter_ReadCounter
  44              	.LVL2:
  45 000e 024B     		ldr	r3, .L3
  46 0010 1880     		strh	r0, [r3]	@ movhi
  27:distanceSensor.c ****     echo_flag = 1 ;
  47              		.loc 1 27 0
  48 0012 0122     		movs	r2, #1
  49 0014 5A60     		str	r2, [r3, #4]
  50 0016 08BD     		pop	{r3, pc}
  51              	.L4:
  52              		.align	2
  53              	.L3:
  54 0018 00000000 		.word	.LANCHOR0
  55              		.cfi_endproc
  56              	.LFE64:
  57              		.size	echo_isr, .-echo_isr
  58              		.section	.text.init_hardware,"ax",%progbits
  59              		.align	2
  60              		.global	init_hardware
  61              		.thumb
  62              		.thumb_func
  63              		.type	init_hardware, %function
  64              	init_hardware:
  65              	.LFB65:
  28:distanceSensor.c **** }
  29:distanceSensor.c **** 
  30:distanceSensor.c **** /* Commented out while debugging
  31:distanceSensor.c **** CY_ISR(timer_isr)
  32:distanceSensor.c **** {
  33:distanceSensor.c ****     isr_timer_ClearPending(); // Clear the interrupt flag
  34:distanceSensor.c **** 
  35:distanceSensor.c ****     double distance = measure_distance(); // Measure the distance
  36:distanceSensor.c **** 
  37:distanceSensor.c ****     // Check if the distance is below the threshold
  38:distanceSensor.c ****     if (distance >= 0 && distance < 10.0) { // Example threshold: 10 cm
  39:distanceSensor.c ****         set_obstruct(1); // Set obstruct to true
  40:distanceSensor.c ****     } else {
  41:distanceSensor.c ****         set_obstruct(0); // Set obstruct to false
  42:distanceSensor.c ****     }
  43:distanceSensor.c **** }
  44:distanceSensor.c **** */
  45:distanceSensor.c **** 
  46:distanceSensor.c **** /* COmmented out while debugging
  47:distanceSensor.c **** void init_timer(void)
  48:distanceSensor.c **** {
  49:distanceSensor.c ****     Timer_Start(); // Start the timer
ARM GAS  C:\Users\Totos\AppData\Local\Temp\ccE5q9Yq.s 			page 3


  50:distanceSensor.c ****     isr_timer_ClearPending(); // Clear any pending interrupts
  51:distanceSensor.c ****     isr_timer_StartEx(timer_isr); // Attach the ISR to the timer interrupt
  52:distanceSensor.c **** }
  53:distanceSensor.c **** */
  54:distanceSensor.c **** 
  55:distanceSensor.c **** 
  56:distanceSensor.c **** void init_hardware(void)
  57:distanceSensor.c ****     /* Enable global interrupts. */{
  66              		.loc 1 57 0
  67              		.cfi_startproc
  68              		@ args = 0, pretend = 0, frame = 0
  69              		@ frame_needed = 0, uses_anonymous_args = 0
  70 0000 08B5     		push	{r3, lr}
  71              		.cfi_def_cfa_offset 8
  72              		.cfi_offset 3, -8
  73              		.cfi_offset 14, -4
  58:distanceSensor.c ****     CyGlobalIntEnable;
  74              		.loc 1 58 0
  75              		.syntax unified
  76              	@ 58 "distanceSensor.c" 1
  77 0002 62B6     		CPSIE   i
  78              	@ 0 "" 2
  59:distanceSensor.c ****     Trigger_Write(0);
  79              		.loc 1 59 0
  80              		.thumb
  81              		.syntax unified
  82 0004 0020     		movs	r0, #0
  83 0006 FFF7FEFF 		bl	Trigger_Write
  84              	.LVL3:
  60:distanceSensor.c ****     Clock_24MHz_Start();
  85              		.loc 1 60 0
  86 000a FFF7FEFF 		bl	Clock_24MHz_Start
  87              	.LVL4:
  61:distanceSensor.c ****     isr_echo_int_ClearPending();
  88              		.loc 1 61 0
  89 000e FFF7FEFF 		bl	isr_echo_int_ClearPending
  90              	.LVL5:
  62:distanceSensor.c ****     isr_echo_int_StartEx(echo_isr);
  91              		.loc 1 62 0
  92 0012 0448     		ldr	r0, .L7
  93 0014 FFF7FEFF 		bl	isr_echo_int_StartEx
  94              	.LVL6:
  63:distanceSensor.c ****     Counter_Init(); // Initialize the counter
  95              		.loc 1 63 0
  96 0018 FFF7FEFF 		bl	Counter_Init
  97              	.LVL7:
  64:distanceSensor.c ****     Counter_Start(); // Start the counter
  98              		.loc 1 64 0
  99 001c FFF7FEFF 		bl	Counter_Start
 100              	.LVL8:
 101 0020 08BD     		pop	{r3, pc}
 102              	.L8:
 103 0022 00BF     		.align	2
 104              	.L7:
 105 0024 00000000 		.word	echo_isr
 106              		.cfi_endproc
 107              	.LFE65:
ARM GAS  C:\Users\Totos\AppData\Local\Temp\ccE5q9Yq.s 			page 4


 108              		.size	init_hardware, .-init_hardware
 109              		.section	.text.pulse_trigger,"ax",%progbits
 110              		.align	2
 111              		.global	pulse_trigger
 112              		.thumb
 113              		.thumb_func
 114              		.type	pulse_trigger, %function
 115              	pulse_trigger:
 116              	.LFB66:
  65:distanceSensor.c **** }
  66:distanceSensor.c **** 
  67:distanceSensor.c **** 
  68:distanceSensor.c **** 
  69:distanceSensor.c **** /**
  70:distanceSensor.c ****  * pulse_trigger
  71:distanceSensor.c ****  * Generate 10us high pulse from trigger pin
  72:distanceSensor.c ****  */
  73:distanceSensor.c **** void pulse_trigger(void)
  74:distanceSensor.c **** {
 117              		.loc 1 74 0
 118              		.cfi_startproc
 119              		@ args = 0, pretend = 0, frame = 0
 120              		@ frame_needed = 0, uses_anonymous_args = 0
 121 0000 08B5     		push	{r3, lr}
 122              		.cfi_def_cfa_offset 8
 123              		.cfi_offset 3, -8
 124              		.cfi_offset 14, -4
  75:distanceSensor.c ****     Counter_Reset_Write(1); // Reset counter
 125              		.loc 1 75 0
 126 0002 0120     		movs	r0, #1
 127 0004 FFF7FEFF 		bl	Counter_Reset_Write
 128              	.LVL9:
  76:distanceSensor.c ****     CyDelayUs(10);
 129              		.loc 1 76 0
 130 0008 0A20     		movs	r0, #10
 131 000a FFF7FEFF 		bl	CyDelayUs
 132              	.LVL10:
  77:distanceSensor.c ****     Counter_Reset_Write(0); // Release reset counter
 133              		.loc 1 77 0
 134 000e 0020     		movs	r0, #0
 135 0010 FFF7FEFF 		bl	Counter_Reset_Write
 136              	.LVL11:
  78:distanceSensor.c **** 
  79:distanceSensor.c ****     isr_echo_int_ClearPending();
 137              		.loc 1 79 0
 138 0014 FFF7FEFF 		bl	isr_echo_int_ClearPending
 139              	.LVL12:
  80:distanceSensor.c ****     isr_echo_int_Enable();
 140              		.loc 1 80 0
 141 0018 FFF7FEFF 		bl	isr_echo_int_Enable
 142              	.LVL13:
  81:distanceSensor.c **** 
  82:distanceSensor.c ****     Trigger_Write(1);  // Trigger pulse HIGH
 143              		.loc 1 82 0
 144 001c 0120     		movs	r0, #1
 145 001e FFF7FEFF 		bl	Trigger_Write
 146              	.LVL14:
ARM GAS  C:\Users\Totos\AppData\Local\Temp\ccE5q9Yq.s 			page 5


  83:distanceSensor.c ****     CyDelayUs(10);
 147              		.loc 1 83 0
 148 0022 0A20     		movs	r0, #10
 149 0024 FFF7FEFF 		bl	CyDelayUs
 150              	.LVL15:
  84:distanceSensor.c ****     Trigger_Write(0);  // Trigger pulse LOW
 151              		.loc 1 84 0
 152 0028 0020     		movs	r0, #0
 153 002a FFF7FEFF 		bl	Trigger_Write
 154              	.LVL16:
  85:distanceSensor.c **** 
  86:distanceSensor.c ****     Counter_Enable();
 155              		.loc 1 86 0
 156 002e FFF7FEFF 		bl	Counter_Enable
 157              	.LVL17:
 158 0032 08BD     		pop	{r3, pc}
 159              		.cfi_endproc
 160              	.LFE66:
 161              		.size	pulse_trigger, .-pulse_trigger
 162              		.global	__aeabi_ui2d
 163              		.global	__aeabi_dmul
 164              		.global	__aeabi_ddiv
 165              		.section	.text.measure_distance,"ax",%progbits
 166              		.align	2
 167              		.global	measure_distance
 168              		.thumb
 169              		.thumb_func
 170              		.type	measure_distance, %function
 171              	measure_distance:
 172              	.LFB67:
  87:distanceSensor.c **** 
  88:distanceSensor.c ****     //char debugStr[50];
  89:distanceSensor.c ****     //sprintf(debugStr, "Counter value: %u\r\n", Counter_ReadCounter());
  90:distanceSensor.c ****     //UART_PC_PutString(debugStr);
  91:distanceSensor.c **** }
  92:distanceSensor.c **** 
  93:distanceSensor.c **** /**
  94:distanceSensor.c ****  * measure_distance
  95:distanceSensor.c ****  * Triggers the ultrasonic sensor, waits for the echo, and calculates the distance.
  96:distanceSensor.c ****  * If the echo is not received within the timeout, it returns -1 to indicate a timeout.
  97:distanceSensor.c ****  *
  98:distanceSensor.c ****  * @return double - The measured distance in centimeters, or -1 if a timeout occurred.
  99:distanceSensor.c ****  */
 100:distanceSensor.c **** double measure_distance(void)
 101:distanceSensor.c **** {
 173              		.loc 1 101 0
 174              		.cfi_startproc
 175              		@ args = 0, pretend = 0, frame = 0
 176              		@ frame_needed = 0, uses_anonymous_args = 0
 177 0000 10B5     		push	{r4, lr}
 178              		.cfi_def_cfa_offset 8
 179              		.cfi_offset 4, -8
 180              		.cfi_offset 14, -4
 181              	.LVL18:
 102:distanceSensor.c ****     uint16_t timeout_count = 0;
 103:distanceSensor.c ****     double distance = -1.0; // Default to -1 to indicate timeout
 104:distanceSensor.c **** 
ARM GAS  C:\Users\Totos\AppData\Local\Temp\ccE5q9Yq.s 			page 6


 105:distanceSensor.c ****     // Trigger the ultrasonic sensor
 106:distanceSensor.c ****     pulse_trigger();
 182              		.loc 1 106 0
 183 0002 FFF7FEFF 		bl	pulse_trigger
 184              	.LVL19:
 102:distanceSensor.c ****     uint16_t timeout_count = 0;
 185              		.loc 1 102 0
 186 0006 0024     		movs	r4, #0
 107:distanceSensor.c **** 
 108:distanceSensor.c ****     // Wait for the echo or timeout
 109:distanceSensor.c ****     while ((echo_flag == 0) && (timeout_count < 1000))
 187              		.loc 1 109 0
 188 0008 04E0     		b	.L12
 189              	.LVL20:
 190              	.L14:
 110:distanceSensor.c ****     {
 111:distanceSensor.c ****         timeout_count++;
 191              		.loc 1 111 0
 192 000a 0134     		adds	r4, r4, #1
 193              	.LVL21:
 194 000c A4B2     		uxth	r4, r4
 195              	.LVL22:
 112:distanceSensor.c ****         CyDelay(1); // Wait 1 ms
 196              		.loc 1 112 0
 197 000e 0120     		movs	r0, #1
 198 0010 FFF7FEFF 		bl	CyDelay
 199              	.LVL23:
 200              	.L12:
 109:distanceSensor.c ****     {
 201              		.loc 1 109 0
 202 0014 144B     		ldr	r3, .L18+16
 203 0016 5B68     		ldr	r3, [r3, #4]
 204 0018 13B9     		cbnz	r3, .L13
 109:distanceSensor.c ****     {
 205              		.loc 1 109 0 is_stmt 0 discriminator 1
 206 001a B4F57A7F 		cmp	r4, #1000
 207 001e F4D3     		bcc	.L14
 208              	.L13:
 113:distanceSensor.c ****     }
 114:distanceSensor.c **** 
 115:distanceSensor.c ****     if (echo_flag)
 209              		.loc 1 115 0 is_stmt 1
 210 0020 114B     		ldr	r3, .L18+16
 211 0022 5B68     		ldr	r3, [r3, #4]
 212 0024 8BB1     		cbz	r3, .L15
 116:distanceSensor.c ****     {
 117:distanceSensor.c ****         echo_flag = 0; // Reset the flag
 213              		.loc 1 117 0
 214 0026 104B     		ldr	r3, .L18+16
 215 0028 0022     		movs	r2, #0
 216 002a 5A60     		str	r2, [r3, #4]
 118:distanceSensor.c ****         distance = (double)(duration) * MACH / 240000.0; // Calculate distance
 217              		.loc 1 118 0
 218 002c 1888     		ldrh	r0, [r3]
 219 002e 80B2     		uxth	r0, r0
 220 0030 FFF7FEFF 		bl	__aeabi_ui2d
 221              	.LVL24:
ARM GAS  C:\Users\Totos\AppData\Local\Temp\ccE5q9Yq.s 			page 7


 222 0034 08A3     		adr	r3, .L18
 223 0036 D3E90023 		ldrd	r2, [r3]
 224 003a FFF7FEFF 		bl	__aeabi_dmul
 225              	.LVL25:
 226 003e 08A3     		adr	r3, .L18+8
 227 0040 D3E90023 		ldrd	r2, [r3]
 228 0044 FFF7FEFF 		bl	__aeabi_ddiv
 229              	.LVL26:
 230 0048 10BD     		pop	{r4, pc}
 231              	.LVL27:
 232              	.L15:
 119:distanceSensor.c **** 
 120:distanceSensor.c ****         // Debug print for calculated distance
 121:distanceSensor.c ****         //char str[50];
 122:distanceSensor.c ****         //sprintf(str, "Calculated Distance: %d cm\r\n", (int)distance);
 123:distanceSensor.c ****         //UART_PC_PutString(str);
 124:distanceSensor.c ****     }
 125:distanceSensor.c ****     else
 126:distanceSensor.c ****     {
 127:distanceSensor.c ****         UART_PC_PutString("Timeout occurred\r\n");
 233              		.loc 1 127 0
 234 004a 0848     		ldr	r0, .L18+20
 235 004c FFF7FEFF 		bl	UART_PC_PutString
 236              	.LVL28:
 103:distanceSensor.c **** 
 237              		.loc 1 103 0
 238 0050 0020     		movs	r0, #0
 239 0052 0749     		ldr	r1, .L18+24
 240              	.LVL29:
 128:distanceSensor.c ****     }
 129:distanceSensor.c **** 
 130:distanceSensor.c ****     return distance;
 131:distanceSensor.c **** }
 241              		.loc 1 131 0
 242 0054 10BD     		pop	{r4, pc}
 243              	.LVL30:
 244              	.L19:
 245 0056 00BF     		.align	3
 246              	.L18:
 247 0058 66666666 		.word	1717986918
 248 005c 66767540 		.word	1081439846
 249 0060 00000000 		.word	0
 250 0064 004C0D41 		.word	1091390464
 251 0068 00000000 		.word	.LANCHOR0
 252 006c 00000000 		.word	.LC0
 253 0070 0000F0BF 		.word	-1074790400
 254              		.cfi_endproc
 255              	.LFE67:
 256              		.size	measure_distance, .-measure_distance
 257              		.section	.text.get_obstruct,"ax",%progbits
 258              		.align	2
 259              		.global	get_obstruct
 260              		.thumb
 261              		.thumb_func
 262              		.type	get_obstruct, %function
 263              	get_obstruct:
 264              	.LFB68:
ARM GAS  C:\Users\Totos\AppData\Local\Temp\ccE5q9Yq.s 			page 8


 132:distanceSensor.c **** 
 133:distanceSensor.c **** int get_obstruct(void)
 134:distanceSensor.c **** {
 265              		.loc 1 134 0
 266              		.cfi_startproc
 267              		@ args = 0, pretend = 0, frame = 0
 268              		@ frame_needed = 0, uses_anonymous_args = 0
 269              		@ link register save eliminated.
 135:distanceSensor.c ****     return obstruct;
 136:distanceSensor.c **** }
 270              		.loc 1 136 0
 271 0000 014B     		ldr	r3, .L21
 272 0002 9868     		ldr	r0, [r3, #8]
 273 0004 7047     		bx	lr
 274              	.L22:
 275 0006 00BF     		.align	2
 276              	.L21:
 277 0008 00000000 		.word	.LANCHOR0
 278              		.cfi_endproc
 279              	.LFE68:
 280              		.size	get_obstruct, .-get_obstruct
 281              		.section	.text.set_obstruct,"ax",%progbits
 282              		.align	2
 283              		.global	set_obstruct
 284              		.thumb
 285              		.thumb_func
 286              		.type	set_obstruct, %function
 287              	set_obstruct:
 288              	.LFB69:
 137:distanceSensor.c **** 
 138:distanceSensor.c **** void set_obstruct(int value)
 139:distanceSensor.c **** {
 289              		.loc 1 139 0
 290              		.cfi_startproc
 291              		@ args = 0, pretend = 0, frame = 0
 292              		@ frame_needed = 0, uses_anonymous_args = 0
 293              		@ link register save eliminated.
 294              	.LVL31:
 140:distanceSensor.c ****     obstruct = value;
 295              		.loc 1 140 0
 296 0000 014B     		ldr	r3, .L24
 297 0002 9860     		str	r0, [r3, #8]
 298 0004 7047     		bx	lr
 299              	.L25:
 300 0006 00BF     		.align	2
 301              	.L24:
 302 0008 00000000 		.word	.LANCHOR0
 303              		.cfi_endproc
 304              	.LFE69:
 305              		.size	set_obstruct, .-set_obstruct
 306              		.global	__aeabi_d2iz
 307              		.section	.text.print_value,"ax",%progbits
 308              		.align	2
 309              		.global	print_value
 310              		.thumb
 311              		.thumb_func
 312              		.type	print_value, %function
ARM GAS  C:\Users\Totos\AppData\Local\Temp\ccE5q9Yq.s 			page 9


 313              	print_value:
 314              	.LFB70:
 141:distanceSensor.c **** }
 142:distanceSensor.c **** 
 143:distanceSensor.c **** /**
 144:distanceSensor.c ****  * print_value
 145:distanceSensor.c ****  * Calculate distance from the duration
 146:distanceSensor.c ****  * Since the duration include both way of the trip
 147:distanceSensor.c ****  * to get the distance, the real duration is the half 
 148:distanceSensor.c ****  * of the duration.
 149:distanceSensor.c ****  *
 150:distanceSensor.c ****  * distance = duration * MACH(m/s) * 100(cm) / (2 * 12000000(Hz)) ;
 151:distanceSensor.c ****  *
 152:distanceSensor.c ****  */
 153:distanceSensor.c **** void print_value(uint32_t duration)
 154:distanceSensor.c **** {
 315              		.loc 1 154 0
 316              		.cfi_startproc
 317              		@ args = 0, pretend = 0, frame = 0
 318              		@ frame_needed = 0, uses_anonymous_args = 0
 319              	.LVL32:
 320 0000 F8B5     		push	{r3, r4, r5, r6, r7, lr}
 321              		.cfi_def_cfa_offset 24
 322              		.cfi_offset 3, -24
 323              		.cfi_offset 4, -20
 324              		.cfi_offset 5, -16
 325              		.cfi_offset 6, -12
 326              		.cfi_offset 7, -8
 327              		.cfi_offset 14, -4
 328              	.LVL33:
 155:distanceSensor.c ****     double distance = 0.0 ;
 156:distanceSensor.c ****     
 157:distanceSensor.c ****     distance = (double)(duration) * MACH / 240000.0 ;
 329              		.loc 1 157 0
 330 0002 FFF7FEFF 		bl	__aeabi_ui2d
 331              	.LVL34:
 332 0006 16A3     		adr	r3, .L28
 333 0008 D3E90023 		ldrd	r2, [r3]
 334 000c FFF7FEFF 		bl	__aeabi_dmul
 335              	.LVL35:
 336 0010 15A3     		adr	r3, .L28+8
 337 0012 D3E90023 		ldrd	r2, [r3]
 338 0016 FFF7FEFF 		bl	__aeabi_ddiv
 339              	.LVL36:
 340 001a 0646     		mov	r6, r0
 341 001c 0F46     		mov	r7, r1
 342              	.LVL37:
 158:distanceSensor.c ****     sprintf(str, "%d.%02dcm\r\n", (int)distance, (int)(100 * distance)%100) ;
 343              		.loc 1 158 0
 344 001e 0022     		movs	r2, #0
 345 0020 134B     		ldr	r3, .L28+16
 346 0022 FFF7FEFF 		bl	__aeabi_dmul
 347              	.LVL38:
 348 0026 FFF7FEFF 		bl	__aeabi_d2iz
 349              	.LVL39:
 350 002a 124C     		ldr	r4, .L28+20
 351 002c 84FB0034 		smull	r3, r4, r4, r0
ARM GAS  C:\Users\Totos\AppData\Local\Temp\ccE5q9Yq.s 			page 10


 352 0030 C317     		asrs	r3, r0, #31
 353 0032 C3EB6413 		rsb	r3, r3, r4, asr #5
 354 0036 6424     		movs	r4, #100
 355 0038 04FB1304 		mls	r4, r4, r3, r0
 356 003c 3046     		mov	r0, r6
 357 003e 3946     		mov	r1, r7
 358 0040 FFF7FEFF 		bl	__aeabi_d2iz
 359              	.LVL40:
 360 0044 0C4D     		ldr	r5, .L28+24
 361 0046 2346     		mov	r3, r4
 362 0048 0246     		mov	r2, r0
 363 004a 0C49     		ldr	r1, .L28+28
 364 004c 2846     		mov	r0, r5
 365 004e FFF7FEFF 		bl	sprintf
 366              	.LVL41:
 159:distanceSensor.c ****     UART_PC_PutString(str) ;
 367              		.loc 1 159 0
 368 0052 2846     		mov	r0, r5
 369 0054 FFF7FEFF 		bl	UART_PC_PutString
 370              	.LVL42:
 371 0058 F8BD     		pop	{r3, r4, r5, r6, r7, pc}
 372              	.LVL43:
 373              	.L29:
 374 005a 00BFAFF3 		.align	3
 374      0080
 375              	.L28:
 376 0060 66666666 		.word	1717986918
 377 0064 66767540 		.word	1081439846
 378 0068 00000000 		.word	0
 379 006c 004C0D41 		.word	1091390464
 380 0070 00005940 		.word	1079574528
 381 0074 1F85EB51 		.word	1374389535
 382 0078 00000000 		.word	str
 383 007c 14000000 		.word	.LC1
 384              		.cfi_endproc
 385              	.LFE70:
 386              		.size	print_value, .-print_value
 387              		.section	.text.splash,"ax",%progbits
 388              		.align	2
 389              		.global	splash
 390              		.thumb
 391              		.thumb_func
 392              		.type	splash, %function
 393              	splash:
 394              	.LFB71:
 160:distanceSensor.c **** }
 161:distanceSensor.c **** 
 162:distanceSensor.c **** void splash(void)
 163:distanceSensor.c **** {
 395              		.loc 1 163 0
 396              		.cfi_startproc
 397              		@ args = 0, pretend = 0, frame = 0
 398              		@ frame_needed = 0, uses_anonymous_args = 0
 399 0000 10B5     		push	{r4, lr}
 400              		.cfi_def_cfa_offset 8
 401              		.cfi_offset 4, -8
 402              		.cfi_offset 14, -4
ARM GAS  C:\Users\Totos\AppData\Local\Temp\ccE5q9Yq.s 			page 11


 164:distanceSensor.c ****     sprintf(str, "HC-SR04 Test CY8CKIT-059 (%s %s)\r\n", __DATE__, __TIME__) ;
 403              		.loc 1 164 0
 404 0002 054C     		ldr	r4, .L32
 405 0004 054B     		ldr	r3, .L32+4
 406 0006 064A     		ldr	r2, .L32+8
 407 0008 0649     		ldr	r1, .L32+12
 408 000a 2046     		mov	r0, r4
 409 000c FFF7FEFF 		bl	sprintf
 410              	.LVL44:
 165:distanceSensor.c ****     UART_PC_PutString(str) ;
 411              		.loc 1 165 0
 412 0010 2046     		mov	r0, r4
 413 0012 FFF7FEFF 		bl	UART_PC_PutString
 414              	.LVL45:
 415 0016 10BD     		pop	{r4, pc}
 416              	.L33:
 417              		.align	2
 418              	.L32:
 419 0018 00000000 		.word	str
 420 001c 20000000 		.word	.LC2
 421 0020 2C000000 		.word	.LC3
 422 0024 38000000 		.word	.LC4
 423              		.cfi_endproc
 424              	.LFE71:
 425              		.size	splash, .-splash
 426              		.comm	str,128,4
 427              		.section	.rodata.str1.4,"aMS",%progbits,1
 428              		.align	2
 429              	.LC0:
 430 0000 54696D65 		.ascii	"Timeout occurred\015\012\000"
 430      6F757420 
 430      6F636375 
 430      72726564 
 430      0D0A00
 431 0013 00       		.space	1
 432              	.LC1:
 433 0014 25642E25 		.ascii	"%d.%02dcm\015\012\000"
 433      30326463 
 433      6D0D0A00 
 434              	.LC2:
 435 0020 31333A33 		.ascii	"13:33:48\000"
 435      333A3438 
 435      00
 436 0029 000000   		.space	3
 437              	.LC3:
 438 002c 4D617920 		.ascii	"May  2 2025\000"
 438      20322032 
 438      30323500 
 439              	.LC4:
 440 0038 48432D53 		.ascii	"HC-SR04 Test CY8CKIT-059 (%s %s)\015\012\000"
 440      52303420 
 440      54657374 
 440      20435938 
 440      434B4954 
 441              		.bss
 442              		.align	2
 443              		.set	.LANCHOR0,. + 0
ARM GAS  C:\Users\Totos\AppData\Local\Temp\ccE5q9Yq.s 			page 12


 444              		.type	duration, %object
 445              		.size	duration, 2
 446              	duration:
 447 0000 0000     		.space	2
 448 0002 0000     		.space	2
 449              		.type	echo_flag, %object
 450              		.size	echo_flag, 4
 451              	echo_flag:
 452 0004 00000000 		.space	4
 453              		.type	obstruct, %object
 454              		.size	obstruct, 4
 455              	obstruct:
 456 0008 00000000 		.space	4
 457              		.text
 458              	.Letext0:
 459              		.file 2 "c:\\program files (x86)\\cypress\\psoc creator\\4.2\\psoc creator\\import\\gnu\\arm\\5.4.
 460              		.file 3 "c:\\program files (x86)\\cypress\\psoc creator\\4.2\\psoc creator\\import\\gnu\\arm\\5.4.
 461              		.file 4 "Generated_Source\\PSoC5/isr_echo_int.h"
 462              		.file 5 "Generated_Source\\PSoC5/Counter.h"
 463              		.file 6 "Generated_Source\\PSoC5/Trigger.h"
 464              		.file 7 "Generated_Source\\PSoC5/Clock_24MHz.h"
 465              		.file 8 "Generated_Source\\PSoC5/Counter_Reset.h"
 466              		.file 9 "Generated_Source\\PSoC5/CyLib.h"
 467              		.file 10 "Generated_Source\\PSoC5/UART_PC.h"
 468              		.file 11 "c:\\program files (x86)\\cypress\\psoc creator\\4.2\\psoc creator\\import\\gnu\\arm\\5.4
 469              		.file 12 "Generated_Source\\PSoC5/core_cm3.h"