ARM GAS  C:\Users\peter\AppData\Local\Temp\ccP2qGZQ.s 			page 1


   1              		.syntax unified
   2              		.cpu cortex-m3
   3              		.fpu softvfp
   4              		.eabi_attribute 20, 1
   5              		.eabi_attribute 21, 1
   6              		.eabi_attribute 23, 3
   7              		.eabi_attribute 24, 1
   8              		.eabi_attribute 25, 1
   9              		.eabi_attribute 26, 1
  10              		.eabi_attribute 30, 1
  11              		.eabi_attribute 34, 1
  12              		.eabi_attribute 18, 4
  13              		.thumb
  14              		.syntax unified
  15              		.file	"firing.c"
  16              		.text
  17              	.Ltext0:
  18              		.cfi_sections	.debug_frame
  19              		.section	.text.fireMechanism,"ax",%progbits
  20              		.align	2
  21              		.global	fireMechanism
  22              		.thumb
  23              		.thumb_func
  24              		.type	fireMechanism, %function
  25              	fireMechanism:
  26              	.LFB63:
  27              		.file 1 "firing.c"
   1:firing.c      **** #include "firing.h"
   2:firing.c      **** #include "control.h" // For startStepperTimerWithPeriod
   3:firing.c      **** 
   4:firing.c      **** // === INTERN STATUS ===
   5:firing.c      **** volatile int16 fireStepsRemaining = 0;
   6:firing.c      **** volatile int8 fireDirection = 1;
   7:firing.c      **** volatile uint8 fireStepPhase = 0;
   8:firing.c      **** volatile uint8 fireInProgress = 0;
   9:firing.c      **** 
  10:firing.c      **** // Start affyringssekvens
  11:firing.c      **** void fireMechanism(void)
  12:firing.c      **** {
  28              		.loc 1 12 0
  29              		.cfi_startproc
  30              		@ args = 0, pretend = 0, frame = 0
  31              		@ frame_needed = 0, uses_anonymous_args = 0
  32 0000 10B5     		push	{r4, lr}
  33              		.cfi_def_cfa_offset 8
  34              		.cfi_offset 4, -8
  35              		.cfi_offset 14, -4
  13:firing.c      ****     fireStepPhase = 0;
  36              		.loc 1 13 0
  37 0002 074C     		ldr	r4, .L3
  38 0004 0023     		movs	r3, #0
  39 0006 2370     		strb	r3, [r4]
  14:firing.c      ****     fireDirection = 1;
  40              		.loc 1 14 0
  41 0008 0120     		movs	r0, #1
  42 000a 064B     		ldr	r3, .L3+4
  43 000c 1870     		strb	r0, [r3]
ARM GAS  C:\Users\peter\AppData\Local\Temp\ccP2qGZQ.s 			page 2


  15:firing.c      ****     fireInProgress = 1;
  44              		.loc 1 15 0
  45 000e 6070     		strb	r0, [r4, #1]
  16:firing.c      **** 
  17:firing.c      ****     FIRE_DIR_PIN_FORWARD;
  46              		.loc 1 17 0
  47 0010 FFF7FEFF 		bl	fireDirPin_Write
  48              	.LVL0:
  18:firing.c      ****     fireStepsRemaining = FIRE_MAX_STEPS_FORWARD;
  49              		.loc 1 18 0
  50 0014 4623     		movs	r3, #70
  51 0016 6380     		strh	r3, [r4, #2]	@ movhi
  19:firing.c      **** 
  20:firing.c      ****     startStepperTimerWithPeriod(FIRE_TIMER_PERIOD_FORWARD);
  52              		.loc 1 20 0
  53 0018 5020     		movs	r0, #80
  54 001a FFF7FEFF 		bl	startStepperTimerWithPeriod
  55              	.LVL1:
  56 001e 10BD     		pop	{r4, pc}
  57              	.L4:
  58              		.align	2
  59              	.L3:
  60 0020 00000000 		.word	.LANCHOR0
  61 0024 00000000 		.word	.LANCHOR1
  62              		.cfi_endproc
  63              	.LFE63:
  64              		.size	fireMechanism, .-fireMechanism
  65              		.section	.text.firingStepperTick,"ax",%progbits
  66              		.align	2
  67              		.global	firingStepperTick
  68              		.thumb
  69              		.thumb_func
  70              		.type	firingStepperTick, %function
  71              	firingStepperTick:
  72              	.LFB64:
  21:firing.c      **** }
  22:firing.c      **** 
  23:firing.c      **** // Kaldes én gang per tick fra fælles timer
  24:firing.c      **** void firingStepperTick(void)
  25:firing.c      **** {
  73              		.loc 1 25 0
  74              		.cfi_startproc
  75              		@ args = 0, pretend = 0, frame = 0
  76              		@ frame_needed = 0, uses_anonymous_args = 0
  77 0000 08B5     		push	{r3, lr}
  78              		.cfi_def_cfa_offset 8
  79              		.cfi_offset 3, -8
  80              		.cfi_offset 14, -4
  26:firing.c      ****     if (fireStepsRemaining > 0)
  81              		.loc 1 26 0
  82 0002 1C4B     		ldr	r3, .L10
  83 0004 5B88     		ldrh	r3, [r3, #2]
  84 0006 1BB2     		sxth	r3, r3
  85 0008 002B     		cmp	r3, #0
  86 000a 0EDD     		ble	.L6
  27:firing.c      ****     {
  28:firing.c      ****         FIRE_STEP_PIN_STEP;
ARM GAS  C:\Users\peter\AppData\Local\Temp\ccP2qGZQ.s 			page 3


  87              		.loc 1 28 0
  88 000c 0120     		movs	r0, #1
  89 000e FFF7FEFF 		bl	fireStepPin_Write
  90              	.LVL2:
  29:firing.c      ****         CyDelayUs(50);
  91              		.loc 1 29 0
  92 0012 3220     		movs	r0, #50
  93 0014 FFF7FEFF 		bl	CyDelayUs
  94              	.LVL3:
  30:firing.c      ****         FIRE_STEP_PIN_RESET;
  95              		.loc 1 30 0
  96 0018 0020     		movs	r0, #0
  97 001a FFF7FEFF 		bl	fireStepPin_Write
  98              	.LVL4:
  31:firing.c      ****         fireStepsRemaining--;
  99              		.loc 1 31 0
 100 001e 154A     		ldr	r2, .L10
 101 0020 5388     		ldrh	r3, [r2, #2]
 102 0022 013B     		subs	r3, r3, #1
 103 0024 1BB2     		sxth	r3, r3
 104 0026 5380     		strh	r3, [r2, #2]	@ movhi
 105 0028 08BD     		pop	{r3, pc}
 106              	.L6:
  32:firing.c      ****     }
  33:firing.c      ****     else if (fireInProgress && fireStepPhase == 0)
 107              		.loc 1 33 0
 108 002a 124B     		ldr	r3, .L10
 109 002c 5B78     		ldrb	r3, [r3, #1]	@ zero_extendqisi2
 110 002e 13F0FF0F 		tst	r3, #255
 111 0032 10D0     		beq	.L8
 112              		.loc 1 33 0 is_stmt 0 discriminator 1
 113 0034 0F4B     		ldr	r3, .L10
 114 0036 1B78     		ldrb	r3, [r3]	@ zero_extendqisi2
 115 0038 13F0FF0F 		tst	r3, #255
 116 003c 0BD1     		bne	.L8
  34:firing.c      ****     {
  35:firing.c      ****         // Skift til returbevægelse
  36:firing.c      ****         startStepperTimerWithPeriod(FIRE_TIMER_PERIOD_BACKWARD);
 117              		.loc 1 36 0 is_stmt 1
 118 003e 1920     		movs	r0, #25
 119 0040 FFF7FEFF 		bl	startStepperTimerWithPeriod
 120              	.LVL5:
  37:firing.c      ****         FIRE_DIR_PIN_BACKWARD;
 121              		.loc 1 37 0
 122 0044 0020     		movs	r0, #0
 123 0046 FFF7FEFF 		bl	fireDirPin_Write
 124              	.LVL6:
  38:firing.c      ****         fireStepPhase = 1;
 125              		.loc 1 38 0
 126 004a 0A4B     		ldr	r3, .L10
 127 004c 0122     		movs	r2, #1
 128 004e 1A70     		strb	r2, [r3]
  39:firing.c      ****         fireStepsRemaining = FIRE_MAX_STEPS_BACKWARD;
 129              		.loc 1 39 0
 130 0050 3222     		movs	r2, #50
 131 0052 5A80     		strh	r2, [r3, #2]	@ movhi
 132 0054 08BD     		pop	{r3, pc}
ARM GAS  C:\Users\peter\AppData\Local\Temp\ccP2qGZQ.s 			page 4


 133              	.L8:
  40:firing.c      ****     }
  41:firing.c      ****     else if (fireInProgress && fireStepPhase == 1)
 134              		.loc 1 41 0
 135 0056 074B     		ldr	r3, .L10
 136 0058 5B78     		ldrb	r3, [r3, #1]	@ zero_extendqisi2
 137 005a 13F0FF0F 		tst	r3, #255
 138 005e 07D0     		beq	.L5
 139              		.loc 1 41 0 is_stmt 0 discriminator 1
 140 0060 044B     		ldr	r3, .L10
 141 0062 1B78     		ldrb	r3, [r3]	@ zero_extendqisi2
 142 0064 DBB2     		uxtb	r3, r3
 143 0066 012B     		cmp	r3, #1
 144 0068 02D1     		bne	.L5
  42:firing.c      ****     {
  43:firing.c      ****         // Sekvens er færdig
  44:firing.c      ****         fireInProgress = 0;
 145              		.loc 1 44 0 is_stmt 1
 146 006a 0022     		movs	r2, #0
 147 006c 014B     		ldr	r3, .L10
 148 006e 5A70     		strb	r2, [r3, #1]
 149              	.L5:
 150 0070 08BD     		pop	{r3, pc}
 151              	.L11:
 152 0072 00BF     		.align	2
 153              	.L10:
 154 0074 00000000 		.word	.LANCHOR0
 155              		.cfi_endproc
 156              	.LFE64:
 157              		.size	firingStepperTick, .-firingStepperTick
 158              		.section	.text.initFiringPins,"ax",%progbits
 159              		.align	2
 160              		.global	initFiringPins
 161              		.thumb
 162              		.thumb_func
 163              		.type	initFiringPins, %function
 164              	initFiringPins:
 165              	.LFB65:
  45:firing.c      ****     }
  46:firing.c      **** }
  47:firing.c      **** 
  48:firing.c      **** // Initialiser output pins
  49:firing.c      **** void initFiringPins(void)
  50:firing.c      **** {
 166              		.loc 1 50 0
 167              		.cfi_startproc
 168              		@ args = 0, pretend = 0, frame = 0
 169              		@ frame_needed = 0, uses_anonymous_args = 0
 170 0000 08B5     		push	{r3, lr}
 171              		.cfi_def_cfa_offset 8
 172              		.cfi_offset 3, -8
 173              		.cfi_offset 14, -4
  51:firing.c      ****     fireStepPin_Write(0);
 174              		.loc 1 51 0
 175 0002 0020     		movs	r0, #0
 176 0004 FFF7FEFF 		bl	fireStepPin_Write
 177              	.LVL7:
ARM GAS  C:\Users\peter\AppData\Local\Temp\ccP2qGZQ.s 			page 5


  52:firing.c      ****     fireDirPin_Write(0);
 178              		.loc 1 52 0
 179 0008 0020     		movs	r0, #0
 180 000a FFF7FEFF 		bl	fireDirPin_Write
 181              	.LVL8:
 182 000e 08BD     		pop	{r3, pc}
 183              		.cfi_endproc
 184              	.LFE65:
 185              		.size	initFiringPins, .-initFiringPins
 186              		.section	.text.firingIsIdle,"ax",%progbits
 187              		.align	2
 188              		.global	firingIsIdle
 189              		.thumb
 190              		.thumb_func
 191              		.type	firingIsIdle, %function
 192              	firingIsIdle:
 193              	.LFB66:
  53:firing.c      **** }
  54:firing.c      **** 
  55:firing.c      **** // Bruges af kontrol-logik til at spørge om affyring er færdig
  56:firing.c      **** uint8 firingIsIdle(void)
  57:firing.c      **** {
 194              		.loc 1 57 0
 195              		.cfi_startproc
 196              		@ args = 0, pretend = 0, frame = 0
 197              		@ frame_needed = 0, uses_anonymous_args = 0
 198              		@ link register save eliminated.
  58:firing.c      ****     return (fireStepsRemaining == 0 && fireInProgress == 0) ? 1 : 0;
 199              		.loc 1 58 0
 200 0000 074B     		ldr	r3, .L18
 201 0002 5B88     		ldrh	r3, [r3, #2]
 202 0004 1BB2     		sxth	r3, r3
 203 0006 33B9     		cbnz	r3, .L16
 204              		.loc 1 58 0 is_stmt 0 discriminator 1
 205 0008 054B     		ldr	r3, .L18
 206 000a 5B78     		ldrb	r3, [r3, #1]	@ zero_extendqisi2
 207 000c 13F0FF0F 		tst	r3, #255
 208 0010 03D0     		beq	.L17
 209              		.loc 1 58 0
 210 0012 0020     		movs	r0, #0
 211 0014 7047     		bx	lr
 212              	.L16:
 213 0016 0020     		movs	r0, #0
 214 0018 7047     		bx	lr
 215              	.L17:
 216 001a 0120     		movs	r0, #1
  59:firing.c      **** }
 217              		.loc 1 59 0 is_stmt 1
 218 001c 7047     		bx	lr
 219              	.L19:
 220 001e 00BF     		.align	2
 221              	.L18:
 222 0020 00000000 		.word	.LANCHOR0
 223              		.cfi_endproc
 224              	.LFE66:
 225              		.size	firingIsIdle, .-firingIsIdle
 226              		.global	fireInProgress
ARM GAS  C:\Users\peter\AppData\Local\Temp\ccP2qGZQ.s 			page 6


 227              		.global	fireStepPhase
 228              		.global	fireDirection
 229              		.global	fireStepsRemaining
 230              		.data
 231              		.set	.LANCHOR1,. + 0
 232              		.type	fireDirection, %object
 233              		.size	fireDirection, 1
 234              	fireDirection:
 235 0000 01       		.byte	1
 236              		.bss
 237              		.align	1
 238              		.set	.LANCHOR0,. + 0
 239              		.type	fireStepPhase, %object
 240              		.size	fireStepPhase, 1
 241              	fireStepPhase:
 242 0000 00       		.space	1
 243              		.type	fireInProgress, %object
 244              		.size	fireInProgress, 1
 245              	fireInProgress:
 246 0001 00       		.space	1
 247              		.type	fireStepsRemaining, %object
 248              		.size	fireStepsRemaining, 2
 249              	fireStepsRemaining:
 250 0002 0000     		.space	2
 251              		.text
 252              	.Letext0:
 253              		.file 2 "c:\\program files (x86)\\cypress\\psoc creator\\4.4\\psoc creator\\import\\gnu\\arm\\5.4.
 254              		.file 3 "c:\\program files (x86)\\cypress\\psoc creator\\4.4\\psoc creator\\import\\gnu\\arm\\5.4.
 255              		.file 4 "Generated_Source\\PSoC5/cytypes.h"
 256              		.file 5 "Generated_Source\\PSoC5/core_cm3.h"
 257              		.file 6 "Generated_Source\\PSoC5/fireDirPin.h"
 258              		.file 7 "control.h"
 259              		.file 8 "Generated_Source\\PSoC5/fireStepPin.h"
 260              		.file 9 "Generated_Source\\PSoC5/CyLib.h"