ARM GAS  C:\Users\peter\AppData\Local\Temp\cc861CWh.s 			page 1


   1              		.syntax unified
   2              		.cpu cortex-m3
   3              		.fpu softvfp
   4              		.eabi_attribute 20, 1
   5              		.eabi_attribute 21, 1
   6              		.eabi_attribute 23, 3
   7              		.eabi_attribute 24, 1
   8              		.eabi_attribute 25, 1
   9              		.eabi_attribute 26, 1
  10              		.eabi_attribute 30, 1
  11              		.eabi_attribute 34, 1
  12              		.eabi_attribute 18, 4
  13              		.thumb
  14              		.syntax unified
  15              		.file	"motor_control.c"
  16              		.text
  17              	.Ltext0:
  18              		.cfi_sections	.debug_frame
  19              		.section	.text.stop,"ax",%progbits
  20              		.align	2
  21              		.global	stop
  22              		.thumb
  23              		.thumb_func
  24              		.type	stop, %function
  25              	stop:
  26              	.LFB64:
  27              		.file 1 "motor_control.c"
   1:motor_control.c **** #include "motor_control.h"
   2:motor_control.c **** #include <stdlib.h>
   3:motor_control.c **** #include <stdio.h>
   4:motor_control.c **** 
   5:motor_control.c **** // Stops the motors by setting all direction pins to logic high
   6:motor_control.c **** void stop(void)
   7:motor_control.c **** {
  28              		.loc 1 7 0
  29              		.cfi_startproc
  30              		@ args = 0, pretend = 0, frame = 0
  31              		@ frame_needed = 0, uses_anonymous_args = 0
  32 0000 08B5     		push	{r3, lr}
  33              		.cfi_def_cfa_offset 8
  34              		.cfi_offset 3, -8
  35              		.cfi_offset 14, -4
   8:motor_control.c ****     UART_PC_PutString("Stop \r\n");
  36              		.loc 1 8 0
  37 0002 0848     		ldr	r0, .L3
  38 0004 FFF7FEFF 		bl	UART_PC_PutString
  39              	.LVL0:
   9:motor_control.c ****      // Motor A: disable PWM and force both pins high.
  10:motor_control.c ****     PWM_A_WriteCompare1(0);
  40              		.loc 1 10 0
  41 0008 0020     		movs	r0, #0
  42 000a FFF7FEFF 		bl	PWM_A_WriteCompare1
  43              	.LVL1:
  11:motor_control.c ****     PWM_A_WriteCompare2(0);
  44              		.loc 1 11 0
  45 000e 0020     		movs	r0, #0
  46 0010 FFF7FEFF 		bl	PWM_A_WriteCompare2
ARM GAS  C:\Users\peter\AppData\Local\Temp\cc861CWh.s 			page 2


  47              	.LVL2:
  12:motor_control.c **** 
  13:motor_control.c ****     // Motor B: disable PWM and force both pins high.
  14:motor_control.c ****     PWM_B_WriteCompare1(0);
  48              		.loc 1 14 0
  49 0014 0020     		movs	r0, #0
  50 0016 FFF7FEFF 		bl	PWM_B_WriteCompare1
  51              	.LVL3:
  15:motor_control.c ****     PWM_B_WriteCompare2(0);
  52              		.loc 1 15 0
  53 001a 0020     		movs	r0, #0
  54 001c FFF7FEFF 		bl	PWM_B_WriteCompare2
  55              	.LVL4:
  56 0020 08BD     		pop	{r3, pc}
  57              	.L4:
  58 0022 00BF     		.align	2
  59              	.L3:
  60 0024 00000000 		.word	.LC0
  61              		.cfi_endproc
  62              	.LFE64:
  63              		.size	stop, .-stop
  64              		.section	.text.set_speedA,"ax",%progbits
  65              		.align	2
  66              		.global	set_speedA
  67              		.thumb
  68              		.thumb_func
  69              		.type	set_speedA, %function
  70              	set_speedA:
  71              	.LFB65:
  16:motor_control.c **** }
  17:motor_control.c **** 
  18:motor_control.c **** void set_speedA(int8_t var1)
  19:motor_control.c **** {    
  72              		.loc 1 19 0
  73              		.cfi_startproc
  74              		@ args = 0, pretend = 0, frame = 0
  75              		@ frame_needed = 0, uses_anonymous_args = 0
  76              	.LVL5:
  77 0000 08B5     		push	{r3, lr}
  78              		.cfi_def_cfa_offset 8
  79              		.cfi_offset 3, -8
  80              		.cfi_offset 14, -4
  20:motor_control.c ****     uint8_t dutyCycle = (uint16_t)((abs(var1) * 255UL) / PWM_MAX_DUTY);
  81              		.loc 1 20 0
  82 0002 80EAE073 		eor	r3, r0, r0, asr #31
  83 0006 A3EBE073 		sub	r3, r3, r0, asr #31
  84 000a C3EB0323 		rsb	r3, r3, r3, lsl #8
  85 000e 0B4A     		ldr	r2, .L9
  86 0010 A2FB0323 		umull	r2, r3, r2, r3
  87 0014 C3F30713 		ubfx	r3, r3, #4, #8
  88              	.LVL6:
  21:motor_control.c **** 
  22:motor_control.c ****     
  23:motor_control.c ****     if (var1 >= 0) {
  89              		.loc 1 23 0
  90 0018 0028     		cmp	r0, #0
  91 001a 07DB     		blt	.L6
ARM GAS  C:\Users\peter\AppData\Local\Temp\cc861CWh.s 			page 3


  24:motor_control.c ****         // Output PWM on IN2 to go forward
  25:motor_control.c ****         PWM_A_WriteCompare1(255 - dutyCycle);
  92              		.loc 1 25 0
  93 001c D843     		mvns	r0, r3
  94              	.LVL7:
  95 001e C0B2     		uxtb	r0, r0
  96 0020 FFF7FEFF 		bl	PWM_A_WriteCompare1
  97              	.LVL8:
  26:motor_control.c ****         // Disable PWM output on IN1, IN1 is set high in direction function
  27:motor_control.c ****         PWM_A_WriteCompare2(255);
  98              		.loc 1 27 0
  99 0024 FF20     		movs	r0, #255
 100 0026 FFF7FEFF 		bl	PWM_A_WriteCompare2
 101              	.LVL9:
 102 002a 08BD     		pop	{r3, pc}
 103              	.LVL10:
 104              	.L6:
  28:motor_control.c ****     }
  29:motor_control.c ****     else {
  30:motor_control.c ****         // Output PWM on IN1 to go backwards
  31:motor_control.c ****         PWM_A_WriteCompare2(255 - dutyCycle);
 105              		.loc 1 31 0
 106 002c D843     		mvns	r0, r3
 107              	.LVL11:
 108 002e C0B2     		uxtb	r0, r0
 109 0030 FFF7FEFF 		bl	PWM_A_WriteCompare2
 110              	.LVL12:
  32:motor_control.c ****         // Disable PWM output on IN2, IN2 is set high in direction function
  33:motor_control.c ****         PWM_A_WriteCompare1(255);
 111              		.loc 1 33 0
 112 0034 FF20     		movs	r0, #255
 113 0036 FFF7FEFF 		bl	PWM_A_WriteCompare1
 114              	.LVL13:
 115 003a 08BD     		pop	{r3, pc}
 116              	.L10:
 117              		.align	2
 118              	.L9:
 119 003c 1F85EB51 		.word	1374389535
 120              		.cfi_endproc
 121              	.LFE65:
 122              		.size	set_speedA, .-set_speedA
 123              		.section	.text.set_speedB,"ax",%progbits
 124              		.align	2
 125              		.global	set_speedB
 126              		.thumb
 127              		.thumb_func
 128              		.type	set_speedB, %function
 129              	set_speedB:
 130              	.LFB66:
  34:motor_control.c ****     }
  35:motor_control.c **** }
  36:motor_control.c **** 
  37:motor_control.c **** void set_speedB(int8_t var2)
  38:motor_control.c **** {
 131              		.loc 1 38 0
 132              		.cfi_startproc
 133              		@ args = 0, pretend = 0, frame = 0
ARM GAS  C:\Users\peter\AppData\Local\Temp\cc861CWh.s 			page 4


 134              		@ frame_needed = 0, uses_anonymous_args = 0
 135              	.LVL14:
 136 0000 08B5     		push	{r3, lr}
 137              		.cfi_def_cfa_offset 8
 138              		.cfi_offset 3, -8
 139              		.cfi_offset 14, -4
  39:motor_control.c ****     uint8_t dutyCycle = (uint16_t)((abs(var2) * 255UL) / PWM_MAX_DUTY);
 140              		.loc 1 39 0
 141 0002 80EAE073 		eor	r3, r0, r0, asr #31
 142 0006 A3EBE073 		sub	r3, r3, r0, asr #31
 143 000a C3EB0323 		rsb	r3, r3, r3, lsl #8
 144 000e 0B4A     		ldr	r2, .L15
 145 0010 A2FB0323 		umull	r2, r3, r2, r3
 146 0014 C3F30713 		ubfx	r3, r3, #4, #8
 147              	.LVL15:
  40:motor_control.c ****     
  41:motor_control.c ****     if (var2 >= 0) {
 148              		.loc 1 41 0
 149 0018 0028     		cmp	r0, #0
 150 001a 07DB     		blt	.L12
  42:motor_control.c ****         // Output PWM on IN4 to go forward
  43:motor_control.c ****         PWM_B_WriteCompare1(255 - dutyCycle);
 151              		.loc 1 43 0
 152 001c D843     		mvns	r0, r3
 153              	.LVL16:
 154 001e C0B2     		uxtb	r0, r0
 155 0020 FFF7FEFF 		bl	PWM_B_WriteCompare1
 156              	.LVL17:
  44:motor_control.c ****         // Disable PWM output on IN3, IN3 is set high in direction function
  45:motor_control.c ****         PWM_B_WriteCompare2(255);
 157              		.loc 1 45 0
 158 0024 FF20     		movs	r0, #255
 159 0026 FFF7FEFF 		bl	PWM_B_WriteCompare2
 160              	.LVL18:
 161 002a 08BD     		pop	{r3, pc}
 162              	.LVL19:
 163              	.L12:
  46:motor_control.c ****     }
  47:motor_control.c ****     else {
  48:motor_control.c ****         // Output PWM on IN3 to go backwards
  49:motor_control.c ****         PWM_B_WriteCompare2(255 - dutyCycle);
 164              		.loc 1 49 0
 165 002c D843     		mvns	r0, r3
 166              	.LVL20:
 167 002e C0B2     		uxtb	r0, r0
 168 0030 FFF7FEFF 		bl	PWM_B_WriteCompare2
 169              	.LVL21:
  50:motor_control.c ****         // Disable PWM output on IN4, IN4 is set high in direction function
  51:motor_control.c ****         PWM_B_WriteCompare1(255);
 170              		.loc 1 51 0
 171 0034 FF20     		movs	r0, #255
 172 0036 FFF7FEFF 		bl	PWM_B_WriteCompare1
 173              	.LVL22:
 174 003a 08BD     		pop	{r3, pc}
 175              	.L16:
 176              		.align	2
 177              	.L15:
ARM GAS  C:\Users\peter\AppData\Local\Temp\cc861CWh.s 			page 5


 178 003c 1F85EB51 		.word	1374389535
 179              		.cfi_endproc
 180              	.LFE66:
 181              		.size	set_speedB, .-set_speedB
 182              		.section	.rodata.str1.4,"aMS",%progbits,1
 183              		.align	2
 184              	.LC0:
 185 0000 53746F70 		.ascii	"Stop \015\012\000"
 185      200D0A00 
 186              		.text
 187              	.Letext0:
 188              		.file 2 "c:\\program files (x86)\\cypress\\psoc creator\\4.4\\psoc creator\\import\\gnu\\arm\\5.4.
 189              		.file 3 "c:\\program files (x86)\\cypress\\psoc creator\\4.4\\psoc creator\\import\\gnu\\arm\\5.4.
 190              		.file 4 "Generated_Source\\PSoC5/UART_PC.h"
 191              		.file 5 "Generated_Source\\PSoC5/PWM_A.h"
 192              		.file 6 "Generated_Source\\PSoC5/PWM_B.h"
 193              		.file 7 "Generated_Source\\PSoC5/core_cm3.h"