ARM GAS  C:\Users\farpe\AppData\Local\Temp\ccGCf0af.s 			page 1


   1              		.syntax unified
   2              		.cpu cortex-m3
   3              		.fpu softvfp
   4              		.eabi_attribute 20, 1
   5              		.eabi_attribute 21, 1
   6              		.eabi_attribute 23, 3
   7              		.eabi_attribute 24, 1
   8              		.eabi_attribute 25, 1
   9              		.eabi_attribute 26, 1
  10              		.eabi_attribute 30, 1
  11              		.eabi_attribute 34, 1
  12              		.eabi_attribute 18, 4
  13              		.thumb
  14              		.syntax unified
  15              		.file	"shootVarHandler.c"
  16              		.text
  17              	.Ltext0:
  18              		.cfi_sections	.debug_frame
  19              		.section	.text.shootVarHandler_getDesiredPos1,"ax",%progbits
  20              		.align	2
  21              		.global	shootVarHandler_getDesiredPos1
  22              		.thumb
  23              		.thumb_func
  24              		.type	shootVarHandler_getDesiredPos1, %function
  25              	shootVarHandler_getDesiredPos1:
  26              	.LFB0:
  27              		.file 1 "shootVarHandler.c"
   1:shootVarHandler.c **** #include "shootVarHandler.h"
   2:shootVarHandler.c **** 
   3:shootVarHandler.c **** 
   4:shootVarHandler.c **** static shootVarHandler handler = {0, 0, 0};
   5:shootVarHandler.c **** 
   6:shootVarHandler.c **** // Getter-funktioner
   7:shootVarHandler.c **** int shootVarHandler_getDesiredPos1(void) {
  28              		.loc 1 7 0
  29              		.cfi_startproc
  30              		@ args = 0, pretend = 0, frame = 0
  31              		@ frame_needed = 0, uses_anonymous_args = 0
  32              		@ link register save eliminated.
   8:shootVarHandler.c ****     return handler.desiredPos1;
   9:shootVarHandler.c **** }
  33              		.loc 1 9 0
  34 0000 014B     		ldr	r3, .L2
  35 0002 1868     		ldr	r0, [r3]
  36 0004 7047     		bx	lr
  37              	.L3:
  38 0006 00BF     		.align	2
  39              	.L2:
  40 0008 00000000 		.word	.LANCHOR0
  41              		.cfi_endproc
  42              	.LFE0:
  43              		.size	shootVarHandler_getDesiredPos1, .-shootVarHandler_getDesiredPos1
  44              		.section	.text.shootVarHandler_getDesiredPos2,"ax",%progbits
  45              		.align	2
  46              		.global	shootVarHandler_getDesiredPos2
  47              		.thumb
  48              		.thumb_func
ARM GAS  C:\Users\farpe\AppData\Local\Temp\ccGCf0af.s 			page 2


  49              		.type	shootVarHandler_getDesiredPos2, %function
  50              	shootVarHandler_getDesiredPos2:
  51              	.LFB1:
  10:shootVarHandler.c **** 
  11:shootVarHandler.c **** int shootVarHandler_getDesiredPos2(void) {
  52              		.loc 1 11 0
  53              		.cfi_startproc
  54              		@ args = 0, pretend = 0, frame = 0
  55              		@ frame_needed = 0, uses_anonymous_args = 0
  56              		@ link register save eliminated.
  12:shootVarHandler.c ****     return handler.desiredPos2;
  13:shootVarHandler.c **** }
  57              		.loc 1 13 0
  58 0000 014B     		ldr	r3, .L5
  59 0002 5868     		ldr	r0, [r3, #4]
  60 0004 7047     		bx	lr
  61              	.L6:
  62 0006 00BF     		.align	2
  63              	.L5:
  64 0008 00000000 		.word	.LANCHOR0
  65              		.cfi_endproc
  66              	.LFE1:
  67              		.size	shootVarHandler_getDesiredPos2, .-shootVarHandler_getDesiredPos2
  68              		.section	.text.shootVarHandler_getShootMode,"ax",%progbits
  69              		.align	2
  70              		.global	shootVarHandler_getShootMode
  71              		.thumb
  72              		.thumb_func
  73              		.type	shootVarHandler_getShootMode, %function
  74              	shootVarHandler_getShootMode:
  75              	.LFB2:
  14:shootVarHandler.c **** 
  15:shootVarHandler.c **** int shootVarHandler_getShootMode(void) {
  76              		.loc 1 15 0
  77              		.cfi_startproc
  78              		@ args = 0, pretend = 0, frame = 0
  79              		@ frame_needed = 0, uses_anonymous_args = 0
  80              		@ link register save eliminated.
  16:shootVarHandler.c ****     return handler.shootMode;
  17:shootVarHandler.c **** }
  81              		.loc 1 17 0
  82 0000 014B     		ldr	r3, .L8
  83 0002 9868     		ldr	r0, [r3, #8]
  84 0004 7047     		bx	lr
  85              	.L9:
  86 0006 00BF     		.align	2
  87              	.L8:
  88 0008 00000000 		.word	.LANCHOR0
  89              		.cfi_endproc
  90              	.LFE2:
  91              		.size	shootVarHandler_getShootMode, .-shootVarHandler_getShootMode
  92              		.section	.text.shootVarHandler_setDesiredPos1,"ax",%progbits
  93              		.align	2
  94              		.global	shootVarHandler_setDesiredPos1
  95              		.thumb
  96              		.thumb_func
  97              		.type	shootVarHandler_setDesiredPos1, %function
ARM GAS  C:\Users\farpe\AppData\Local\Temp\ccGCf0af.s 			page 3


  98              	shootVarHandler_setDesiredPos1:
  99              	.LFB3:
  18:shootVarHandler.c **** 
  19:shootVarHandler.c **** // Setter-funktioner
  20:shootVarHandler.c **** void shootVarHandler_setDesiredPos1(int newPos1) {
 100              		.loc 1 20 0
 101              		.cfi_startproc
 102              		@ args = 0, pretend = 0, frame = 0
 103              		@ frame_needed = 0, uses_anonymous_args = 0
 104              		@ link register save eliminated.
 105              	.LVL0:
  21:shootVarHandler.c ****     handler.desiredPos1 = newPos1;
 106              		.loc 1 21 0
 107 0000 014B     		ldr	r3, .L11
 108 0002 1860     		str	r0, [r3]
 109 0004 7047     		bx	lr
 110              	.L12:
 111 0006 00BF     		.align	2
 112              	.L11:
 113 0008 00000000 		.word	.LANCHOR0
 114              		.cfi_endproc
 115              	.LFE3:
 116              		.size	shootVarHandler_setDesiredPos1, .-shootVarHandler_setDesiredPos1
 117              		.section	.text.shootVarHandler_setDesiredPos2,"ax",%progbits
 118              		.align	2
 119              		.global	shootVarHandler_setDesiredPos2
 120              		.thumb
 121              		.thumb_func
 122              		.type	shootVarHandler_setDesiredPos2, %function
 123              	shootVarHandler_setDesiredPos2:
 124              	.LFB4:
  22:shootVarHandler.c **** }
  23:shootVarHandler.c **** 
  24:shootVarHandler.c **** void shootVarHandler_setDesiredPos2(int newPos2) {
 125              		.loc 1 24 0
 126              		.cfi_startproc
 127              		@ args = 0, pretend = 0, frame = 0
 128              		@ frame_needed = 0, uses_anonymous_args = 0
 129              		@ link register save eliminated.
 130              	.LVL1:
  25:shootVarHandler.c ****     handler.desiredPos2 = newPos2;
 131              		.loc 1 25 0
 132 0000 014B     		ldr	r3, .L14
 133 0002 5860     		str	r0, [r3, #4]
 134 0004 7047     		bx	lr
 135              	.L15:
 136 0006 00BF     		.align	2
 137              	.L14:
 138 0008 00000000 		.word	.LANCHOR0
 139              		.cfi_endproc
 140              	.LFE4:
 141              		.size	shootVarHandler_setDesiredPos2, .-shootVarHandler_setDesiredPos2
 142              		.section	.text.shootVarHandler_setShootMode,"ax",%progbits
 143              		.align	2
 144              		.global	shootVarHandler_setShootMode
 145              		.thumb
 146              		.thumb_func
ARM GAS  C:\Users\farpe\AppData\Local\Temp\ccGCf0af.s 			page 4


 147              		.type	shootVarHandler_setShootMode, %function
 148              	shootVarHandler_setShootMode:
 149              	.LFB5:
  26:shootVarHandler.c **** }
  27:shootVarHandler.c **** 
  28:shootVarHandler.c **** void shootVarHandler_setShootMode(int newMode) {
 150              		.loc 1 28 0
 151              		.cfi_startproc
 152              		@ args = 0, pretend = 0, frame = 0
 153              		@ frame_needed = 0, uses_anonymous_args = 0
 154              		@ link register save eliminated.
 155              	.LVL2:
  29:shootVarHandler.c ****     handler.shootMode = newMode;
 156              		.loc 1 29 0
 157 0000 014B     		ldr	r3, .L17
 158 0002 9860     		str	r0, [r3, #8]
 159 0004 7047     		bx	lr
 160              	.L18:
 161 0006 00BF     		.align	2
 162              	.L17:
 163 0008 00000000 		.word	.LANCHOR0
 164              		.cfi_endproc
 165              	.LFE5:
 166              		.size	shootVarHandler_setShootMode, .-shootVarHandler_setShootMode
 167              		.bss
 168              		.align	2
 169              		.set	.LANCHOR0,. + 0
 170              		.type	handler, %object
 171              		.size	handler, 12
 172              	handler:
 173 0000 00000000 		.space	12
 173      00000000 
 173      00000000 
 174              		.text
 175              	.Letext0:
 176              		.file 2 "shootVarHandler.h"