ARM GAS  C:\Users\peter\AppData\Local\Temp\cc0byPOe.s 			page 1


   1              		.syntax unified
   2              		.cpu cortex-m3
   3              		.fpu softvfp
   4              		.eabi_attribute 20, 1
   5              		.eabi_attribute 21, 1
   6              		.eabi_attribute 23, 3
   7              		.eabi_attribute 24, 1
   8              		.eabi_attribute 25, 1
   9              		.eabi_attribute 26, 1
  10              		.eabi_attribute 30, 1
  11              		.eabi_attribute 34, 1
  12              		.eabi_attribute 18, 4
  13              		.thumb
  14              		.syntax unified
  15              		.file	"stepper.c"
  16              		.text
  17              	.Ltext0:
  18              		.cfi_sections	.debug_frame
  19              		.section	.text.stepperTick,"ax",%progbits
  20              		.align	2
  21              		.global	stepperTick
  22              		.thumb
  23              		.thumb_func
  24              		.type	stepperTick, %function
  25              	stepperTick:
  26              	.LFB63:
  27              		.file 1 "stepper.c"
   1:stepper.c     **** #include "stepper.h"
   2:stepper.c     **** #include "control.h" // For startStepperTimerWithPeriod
   3:stepper.c     **** #include <stdlib.h>
   4:stepper.c     **** 
   5:stepper.c     **** // === PIN-MAKROER ===
   6:stepper.c     **** #define DIAL_STEP_PIN_STEP    dialStepPin_Write(1)
   7:stepper.c     **** #define DIAL_STEP_PIN_RESET   dialStepPin_Write(0)
   8:stepper.c     **** #define DIAL_DIR_PIN_FORWARD  dialDirPin_Write(1)
   9:stepper.c     **** #define DIAL_DIR_PIN_BACKWARD dialDirPin_Write(0)
  10:stepper.c     **** 
  11:stepper.c     **** #define ANGLE_STEP_PIN_STEP    angleStepPin_Write(1)
  12:stepper.c     **** #define ANGLE_STEP_PIN_RESET   angleStepPin_Write(0)
  13:stepper.c     **** #define ANGLE_DIR_PIN_FORWARD  angleDirPin_Write(1)
  14:stepper.c     **** #define ANGLE_DIR_PIN_BACKWARD angleDirPin_Write(0)
  15:stepper.c     **** 
  16:stepper.c     **** // === GLOBALE VARIABLER ===
  17:stepper.c     **** volatile int8 dialCurrentPosition = 0;
  18:stepper.c     **** volatile int8 dialDirection = 1;
  19:stepper.c     **** volatile int8 dialStepsRemaining = 0;
  20:stepper.c     **** 
  21:stepper.c     **** volatile int8 angleCurrentPosition = 0;
  22:stepper.c     **** volatile int8 angleDirection = 1;
  23:stepper.c     **** volatile int8 angleStepsRemaining = 0;
  24:stepper.c     **** 
  25:stepper.c     **** // Kaldes én gang per timer interrupt
  26:stepper.c     **** void stepperTick(void)
  27:stepper.c     **** {
  28              		.loc 1 27 0
  29              		.cfi_startproc
  30              		@ args = 0, pretend = 0, frame = 0
ARM GAS  C:\Users\peter\AppData\Local\Temp\cc0byPOe.s 			page 2


  31              		@ frame_needed = 0, uses_anonymous_args = 0
  32 0000 08B5     		push	{r3, lr}
  33              		.cfi_def_cfa_offset 8
  34              		.cfi_offset 3, -8
  35              		.cfi_offset 14, -4
  28:stepper.c     ****     if (dialStepsRemaining > 0)
  36              		.loc 1 28 0
  37 0002 1C4B     		ldr	r3, .L5
  38 0004 1B78     		ldrb	r3, [r3]	@ zero_extendqisi2
  39 0006 5BB2     		sxtb	r3, r3
  40 0008 002B     		cmp	r3, #0
  41 000a 16DD     		ble	.L2
  29:stepper.c     ****     {
  30:stepper.c     ****         DIAL_STEP_PIN_STEP;
  42              		.loc 1 30 0
  43 000c 0120     		movs	r0, #1
  44 000e FFF7FEFF 		bl	dialStepPin_Write
  45              	.LVL0:
  31:stepper.c     ****         CyDelayUs(50);
  46              		.loc 1 31 0
  47 0012 3220     		movs	r0, #50
  48 0014 FFF7FEFF 		bl	CyDelayUs
  49              	.LVL1:
  32:stepper.c     ****         DIAL_STEP_PIN_RESET;
  50              		.loc 1 32 0
  51 0018 0020     		movs	r0, #0
  52 001a FFF7FEFF 		bl	dialStepPin_Write
  53              	.LVL2:
  33:stepper.c     ****         dialStepsRemaining--;
  54              		.loc 1 33 0
  55 001e 154A     		ldr	r2, .L5
  56 0020 1378     		ldrb	r3, [r2]	@ zero_extendqisi2
  57 0022 5BB2     		sxtb	r3, r3
  58 0024 013B     		subs	r3, r3, #1
  59 0026 5BB2     		sxtb	r3, r3
  60 0028 1370     		strb	r3, [r2]
  34:stepper.c     ****         dialCurrentPosition += dialDirection;
  61              		.loc 1 34 0
  62 002a 134B     		ldr	r3, .L5+4
  63 002c 1B78     		ldrb	r3, [r3]	@ zero_extendqisi2
  64 002e 59B2     		sxtb	r1, r3
  65 0030 5378     		ldrb	r3, [r2, #1]	@ zero_extendqisi2
  66 0032 5BB2     		sxtb	r3, r3
  67 0034 0B44     		add	r3, r3, r1
  68 0036 5BB2     		sxtb	r3, r3
  69 0038 5370     		strb	r3, [r2, #1]
  70              	.L2:
  35:stepper.c     ****     }
  36:stepper.c     **** 
  37:stepper.c     ****     if (angleStepsRemaining > 0)
  71              		.loc 1 37 0
  72 003a 0E4B     		ldr	r3, .L5
  73 003c 9B78     		ldrb	r3, [r3, #2]	@ zero_extendqisi2
  74 003e 5BB2     		sxtb	r3, r3
  75 0040 002B     		cmp	r3, #0
  76 0042 16DD     		ble	.L1
  38:stepper.c     ****     {
ARM GAS  C:\Users\peter\AppData\Local\Temp\cc0byPOe.s 			page 3


  39:stepper.c     ****         ANGLE_STEP_PIN_STEP;
  77              		.loc 1 39 0
  78 0044 0120     		movs	r0, #1
  79 0046 FFF7FEFF 		bl	angleStepPin_Write
  80              	.LVL3:
  40:stepper.c     ****         CyDelayUs(50);
  81              		.loc 1 40 0
  82 004a 3220     		movs	r0, #50
  83 004c FFF7FEFF 		bl	CyDelayUs
  84              	.LVL4:
  41:stepper.c     ****         ANGLE_STEP_PIN_RESET;
  85              		.loc 1 41 0
  86 0050 0020     		movs	r0, #0
  87 0052 FFF7FEFF 		bl	angleStepPin_Write
  88              	.LVL5:
  42:stepper.c     ****         angleStepsRemaining--;
  89              		.loc 1 42 0
  90 0056 074A     		ldr	r2, .L5
  91 0058 9378     		ldrb	r3, [r2, #2]	@ zero_extendqisi2
  92 005a 5BB2     		sxtb	r3, r3
  93 005c 013B     		subs	r3, r3, #1
  94 005e 5BB2     		sxtb	r3, r3
  95 0060 9370     		strb	r3, [r2, #2]
  43:stepper.c     ****         angleCurrentPosition += angleDirection;
  96              		.loc 1 43 0
  97 0062 054B     		ldr	r3, .L5+4
  98 0064 5B78     		ldrb	r3, [r3, #1]	@ zero_extendqisi2
  99 0066 59B2     		sxtb	r1, r3
 100 0068 D378     		ldrb	r3, [r2, #3]	@ zero_extendqisi2
 101 006a 5BB2     		sxtb	r3, r3
 102 006c 0B44     		add	r3, r3, r1
 103 006e 5BB2     		sxtb	r3, r3
 104 0070 D370     		strb	r3, [r2, #3]
 105              	.L1:
 106 0072 08BD     		pop	{r3, pc}
 107              	.L6:
 108              		.align	2
 109              	.L5:
 110 0074 00000000 		.word	.LANCHOR0
 111 0078 00000000 		.word	.LANCHOR1
 112              		.cfi_endproc
 113              	.LFE63:
 114              		.size	stepperTick, .-stepperTick
 115              		.section	.text.setStepperTargets,"ax",%progbits
 116              		.align	2
 117              		.global	setStepperTargets
 118              		.thumb
 119              		.thumb_func
 120              		.type	setStepperTargets, %function
 121              	setStepperTargets:
 122              	.LFB64:
  44:stepper.c     ****     }
  45:stepper.c     **** }
  46:stepper.c     **** 
  47:stepper.c     **** // Initialiser retning og steps for dial og angle
  48:stepper.c     **** void setStepperTargets(int8 dialTarget, int8 angleTarget)
  49:stepper.c     **** {
ARM GAS  C:\Users\peter\AppData\Local\Temp\cc0byPOe.s 			page 4


 123              		.loc 1 49 0
 124              		.cfi_startproc
 125              		@ args = 0, pretend = 0, frame = 0
 126              		@ frame_needed = 0, uses_anonymous_args = 0
 127              	.LVL6:
 128 0000 10B5     		push	{r4, lr}
 129              		.cfi_def_cfa_offset 8
 130              		.cfi_offset 4, -8
 131              		.cfi_offset 14, -4
 132 0002 0C46     		mov	r4, r1
  50:stepper.c     ****     int16 delta;
  51:stepper.c     **** 
  52:stepper.c     ****     // === Dial motor ===
  53:stepper.c     ****     if (dialTarget > DIAL_MAX_POSITION) dialTarget = DIAL_MAX_POSITION;
 133              		.loc 1 53 0
 134 0004 6428     		cmp	r0, #100
 135 0006 00DD     		ble	.L8
 136 0008 6420     		movs	r0, #100
 137              	.LVL7:
 138              	.L8:
  54:stepper.c     ****     if (dialTarget < DIAL_MIN_POSITION) dialTarget = DIAL_MIN_POSITION;
 139              		.loc 1 54 0
 140 000a 10F1640F 		cmn	r0, #100
 141 000e 01DA     		bge	.L9
 142 0010 6FF06300 		mvn	r0, #99
 143              	.LVL8:
 144              	.L9:
  55:stepper.c     **** 
  56:stepper.c     ****     delta = dialTarget - dialCurrentPosition;
 145              		.loc 1 56 0
 146 0014 264B     		ldr	r3, .L27
 147 0016 5B78     		ldrb	r3, [r3, #1]	@ zero_extendqisi2
 148 0018 5BB2     		sxtb	r3, r3
 149 001a C01A     		subs	r0, r0, r3
 150              	.LVL9:
  57:stepper.c     ****     dialDirection = (delta > 0) ? 1 : -1;
 151              		.loc 1 57 0
 152 001c 0028     		cmp	r0, #0
 153 001e 01DD     		ble	.L22
 154 0020 0122     		movs	r2, #1
 155 0022 01E0     		b	.L10
 156              	.L22:
 157 0024 4FF0FF32 		mov	r2, #-1
 158              	.L10:
 159              		.loc 1 57 0 is_stmt 0 discriminator 4
 160 0028 224B     		ldr	r3, .L27+4
 161 002a 1A70     		strb	r2, [r3]
  58:stepper.c     ****     dialStepsRemaining = abs(delta);
 162              		.loc 1 58 0 is_stmt 1 discriminator 4
 163 002c 0028     		cmp	r0, #0
 164 002e B8BF     		it	lt
 165 0030 4042     		rsblt	r0, r0, #0
 166              	.LVL10:
 167 0032 40B2     		sxtb	r0, r0
 168 0034 1E4A     		ldr	r2, .L27
 169 0036 1070     		strb	r0, [r2]
  59:stepper.c     ****     if (dialDirection > 0) DIAL_DIR_PIN_FORWARD; else DIAL_DIR_PIN_BACKWARD;
ARM GAS  C:\Users\peter\AppData\Local\Temp\cc0byPOe.s 			page 5


 170              		.loc 1 59 0 discriminator 4
 171 0038 1B78     		ldrb	r3, [r3]	@ zero_extendqisi2
 172 003a 5BB2     		sxtb	r3, r3
 173 003c 002B     		cmp	r3, #0
 174 003e 03DD     		ble	.L11
 175              		.loc 1 59 0 is_stmt 0 discriminator 1
 176 0040 0120     		movs	r0, #1
 177 0042 FFF7FEFF 		bl	dialDirPin_Write
 178              	.LVL11:
 179 0046 02E0     		b	.L12
 180              	.LVL12:
 181              	.L11:
 182              		.loc 1 59 0 discriminator 2
 183 0048 0020     		movs	r0, #0
 184 004a FFF7FEFF 		bl	dialDirPin_Write
 185              	.LVL13:
 186              	.L12:
  60:stepper.c     **** 
  61:stepper.c     ****     // === Angle motor ===
  62:stepper.c     ****     if (angleTarget > ANGLE_MAX_POSITION) angleTarget = ANGLE_MAX_POSITION;
 187              		.loc 1 62 0 is_stmt 1
 188 004e 322C     		cmp	r4, #50
 189 0050 00DD     		ble	.L13
 190 0052 3224     		movs	r4, #50
 191              	.L13:
 192              	.LVL14:
  63:stepper.c     ****     if (angleTarget < ANGLE_MIN_POSITION) angleTarget = ANGLE_MIN_POSITION;
 193              		.loc 1 63 0
 194 0054 002C     		cmp	r4, #0
 195 0056 00DA     		bge	.L14
 196 0058 0024     		movs	r4, #0
 197              	.LVL15:
 198              	.L14:
  64:stepper.c     **** 
  65:stepper.c     ****     delta = angleTarget - angleCurrentPosition;
 199              		.loc 1 65 0
 200 005a 154B     		ldr	r3, .L27
 201 005c DB78     		ldrb	r3, [r3, #3]	@ zero_extendqisi2
 202 005e 5BB2     		sxtb	r3, r3
 203 0060 E41A     		subs	r4, r4, r3
 204              	.LVL16:
  66:stepper.c     ****     angleDirection = (delta > 0) ? 1 : -1;
 205              		.loc 1 66 0
 206 0062 002C     		cmp	r4, #0
 207 0064 01DD     		ble	.L25
 208 0066 0122     		movs	r2, #1
 209 0068 01E0     		b	.L15
 210              	.L25:
 211 006a 4FF0FF32 		mov	r2, #-1
 212              	.L15:
 213              		.loc 1 66 0 is_stmt 0 discriminator 4
 214 006e 114B     		ldr	r3, .L27+4
 215 0070 5A70     		strb	r2, [r3, #1]
  67:stepper.c     ****     angleStepsRemaining = abs(delta);
 216              		.loc 1 67 0 is_stmt 1 discriminator 4
 217 0072 002C     		cmp	r4, #0
 218 0074 B8BF     		it	lt
ARM GAS  C:\Users\peter\AppData\Local\Temp\cc0byPOe.s 			page 6


 219 0076 6442     		rsblt	r4, r4, #0
 220              	.LVL17:
 221 0078 64B2     		sxtb	r4, r4
 222 007a 0D4A     		ldr	r2, .L27
 223 007c 9470     		strb	r4, [r2, #2]
  68:stepper.c     ****     if (angleDirection > 0) ANGLE_DIR_PIN_FORWARD; else ANGLE_DIR_PIN_BACKWARD;
 224              		.loc 1 68 0 discriminator 4
 225 007e 5B78     		ldrb	r3, [r3, #1]	@ zero_extendqisi2
 226 0080 5BB2     		sxtb	r3, r3
 227 0082 002B     		cmp	r3, #0
 228 0084 03DD     		ble	.L16
 229              		.loc 1 68 0 is_stmt 0 discriminator 1
 230 0086 0120     		movs	r0, #1
 231 0088 FFF7FEFF 		bl	angleDirPin_Write
 232              	.LVL18:
 233 008c 02E0     		b	.L17
 234              	.L16:
 235              		.loc 1 68 0 discriminator 2
 236 008e 0020     		movs	r0, #0
 237 0090 FFF7FEFF 		bl	angleDirPin_Write
 238              	.LVL19:
 239              	.L17:
  69:stepper.c     **** 
  70:stepper.c     ****     // Start timer hvis nødvendigt
  71:stepper.c     ****     if (dialStepsRemaining > 0 || angleStepsRemaining > 0)
 240              		.loc 1 71 0 is_stmt 1
 241 0094 064B     		ldr	r3, .L27
 242 0096 1B78     		ldrb	r3, [r3]	@ zero_extendqisi2
 243 0098 5BB2     		sxtb	r3, r3
 244 009a 002B     		cmp	r3, #0
 245 009c 04DC     		bgt	.L18
 246              		.loc 1 71 0 is_stmt 0 discriminator 1
 247 009e 044B     		ldr	r3, .L27
 248 00a0 9B78     		ldrb	r3, [r3, #2]	@ zero_extendqisi2
 249 00a2 5BB2     		sxtb	r3, r3
 250 00a4 002B     		cmp	r3, #0
 251 00a6 02DD     		ble	.L7
 252              	.L18:
  72:stepper.c     ****     {
  73:stepper.c     ****         startStepperTimerWithPeriod(STEPPER_TIMER_PERIOD);
 253              		.loc 1 73 0 is_stmt 1
 254 00a8 1920     		movs	r0, #25
 255 00aa FFF7FEFF 		bl	startStepperTimerWithPeriod
 256              	.LVL20:
 257              	.L7:
 258 00ae 10BD     		pop	{r4, pc}
 259              	.L28:
 260              		.align	2
 261              	.L27:
 262 00b0 00000000 		.word	.LANCHOR0
 263 00b4 00000000 		.word	.LANCHOR1
 264              		.cfi_endproc
 265              	.LFE64:
 266              		.size	setStepperTargets, .-setStepperTargets
 267              		.section	.text.stepperIsIdle,"ax",%progbits
 268              		.align	2
 269              		.global	stepperIsIdle
ARM GAS  C:\Users\peter\AppData\Local\Temp\cc0byPOe.s 			page 7


 270              		.thumb
 271              		.thumb_func
 272              		.type	stepperIsIdle, %function
 273              	stepperIsIdle:
 274              	.LFB65:
  74:stepper.c     ****     }
  75:stepper.c     **** }
  76:stepper.c     **** 
  77:stepper.c     **** // Returnerer 1 hvis begge motorer er færdige ellers 0
  78:stepper.c     **** uint8 stepperIsIdle(void)
  79:stepper.c     **** {
 275              		.loc 1 79 0
 276              		.cfi_startproc
 277              		@ args = 0, pretend = 0, frame = 0
 278              		@ frame_needed = 0, uses_anonymous_args = 0
 279              		@ link register save eliminated.
  80:stepper.c     ****     return (dialStepsRemaining == 0 && angleStepsRemaining == 0) ? 1 : 0;
 280              		.loc 1 80 0
 281 0000 064B     		ldr	r3, .L33
 282 0002 1B78     		ldrb	r3, [r3]	@ zero_extendqisi2
 283 0004 5BB2     		sxtb	r3, r3
 284 0006 2BB9     		cbnz	r3, .L31
 285              		.loc 1 80 0 is_stmt 0 discriminator 1
 286 0008 044B     		ldr	r3, .L33
 287 000a 9B78     		ldrb	r3, [r3, #2]	@ zero_extendqisi2
 288 000c 5BB2     		sxtb	r3, r3
 289 000e 1BB1     		cbz	r3, .L32
 290              		.loc 1 80 0
 291 0010 0020     		movs	r0, #0
 292 0012 7047     		bx	lr
 293              	.L31:
 294 0014 0020     		movs	r0, #0
 295 0016 7047     		bx	lr
 296              	.L32:
 297 0018 0120     		movs	r0, #1
  81:stepper.c     **** }
 298              		.loc 1 81 0 is_stmt 1
 299 001a 7047     		bx	lr
 300              	.L34:
 301              		.align	2
 302              	.L33:
 303 001c 00000000 		.word	.LANCHOR0
 304              		.cfi_endproc
 305              	.LFE65:
 306              		.size	stepperIsIdle, .-stepperIsIdle
 307              		.section	.text.initStepperPins,"ax",%progbits
 308              		.align	2
 309              		.global	initStepperPins
 310              		.thumb
 311              		.thumb_func
 312              		.type	initStepperPins, %function
 313              	initStepperPins:
 314              	.LFB66:
  82:stepper.c     **** 
  83:stepper.c     **** 
  84:stepper.c     **** // Nulstil pins ved init
  85:stepper.c     **** void initStepperPins(void)
ARM GAS  C:\Users\peter\AppData\Local\Temp\cc0byPOe.s 			page 8


  86:stepper.c     **** {
 315              		.loc 1 86 0
 316              		.cfi_startproc
 317              		@ args = 0, pretend = 0, frame = 0
 318              		@ frame_needed = 0, uses_anonymous_args = 0
 319 0000 08B5     		push	{r3, lr}
 320              		.cfi_def_cfa_offset 8
 321              		.cfi_offset 3, -8
 322              		.cfi_offset 14, -4
  87:stepper.c     ****     dialStepPin_Write(0);
 323              		.loc 1 87 0
 324 0002 0020     		movs	r0, #0
 325 0004 FFF7FEFF 		bl	dialStepPin_Write
 326              	.LVL21:
  88:stepper.c     ****     dialDirPin_Write(0);
 327              		.loc 1 88 0
 328 0008 0020     		movs	r0, #0
 329 000a FFF7FEFF 		bl	dialDirPin_Write
 330              	.LVL22:
  89:stepper.c     ****     angleStepPin_Write(0);
 331              		.loc 1 89 0
 332 000e 0020     		movs	r0, #0
 333 0010 FFF7FEFF 		bl	angleStepPin_Write
 334              	.LVL23:
  90:stepper.c     ****     angleDirPin_Write(0);
 335              		.loc 1 90 0
 336 0014 0020     		movs	r0, #0
 337 0016 FFF7FEFF 		bl	angleDirPin_Write
 338              	.LVL24:
 339 001a 08BD     		pop	{r3, pc}
 340              		.cfi_endproc
 341              	.LFE66:
 342              		.size	initStepperPins, .-initStepperPins
 343              		.global	angleStepsRemaining
 344              		.global	angleDirection
 345              		.global	angleCurrentPosition
 346              		.global	dialStepsRemaining
 347              		.global	dialDirection
 348              		.global	dialCurrentPosition
 349              		.data
 350              		.set	.LANCHOR1,. + 0
 351              		.type	dialDirection, %object
 352              		.size	dialDirection, 1
 353              	dialDirection:
 354 0000 01       		.byte	1
 355              		.type	angleDirection, %object
 356              		.size	angleDirection, 1
 357              	angleDirection:
 358 0001 01       		.byte	1
 359              		.bss
 360              		.set	.LANCHOR0,. + 0
 361              		.type	dialStepsRemaining, %object
 362              		.size	dialStepsRemaining, 1
 363              	dialStepsRemaining:
 364 0000 00       		.space	1
 365              		.type	dialCurrentPosition, %object
 366              		.size	dialCurrentPosition, 1
ARM GAS  C:\Users\peter\AppData\Local\Temp\cc0byPOe.s 			page 9


 367              	dialCurrentPosition:
 368 0001 00       		.space	1
 369              		.type	angleStepsRemaining, %object
 370              		.size	angleStepsRemaining, 1
 371              	angleStepsRemaining:
 372 0002 00       		.space	1
 373              		.type	angleCurrentPosition, %object
 374              		.size	angleCurrentPosition, 1
 375              	angleCurrentPosition:
 376 0003 00       		.space	1
 377              		.text
 378              	.Letext0:
 379              		.file 2 "c:\\program files (x86)\\cypress\\psoc creator\\4.4\\psoc creator\\import\\gnu\\arm\\5.4.
 380              		.file 3 "c:\\program files (x86)\\cypress\\psoc creator\\4.4\\psoc creator\\import\\gnu\\arm\\5.4.
 381              		.file 4 "Generated_Source\\PSoC5/cytypes.h"
 382              		.file 5 "Generated_Source\\PSoC5/core_cm3.h"
 383              		.file 6 "Generated_Source\\PSoC5/dialStepPin.h"
 384              		.file 7 "Generated_Source\\PSoC5/CyLib.h"
 385              		.file 8 "Generated_Source\\PSoC5/angleStepPin.h"
 386              		.file 9 "Generated_Source\\PSoC5/dialDirPin.h"
 387              		.file 10 "Generated_Source\\PSoC5/angleDirPin.h"
 388              		.file 11 "control.h"