ARM GAS  C:\Users\OTTOSE~1\AppData\Local\Temp\ccFpkE0V.s 			page 1


   1              		.syntax unified
   2              		.cpu cortex-m3
   3              		.fpu softvfp
   4              		.eabi_attribute 20, 1
   5              		.eabi_attribute 21, 1
   6              		.eabi_attribute 23, 3
   7              		.eabi_attribute 24, 1
   8              		.eabi_attribute 25, 1
   9              		.eabi_attribute 26, 1
  10              		.eabi_attribute 30, 1
  11              		.eabi_attribute 34, 1
  12              		.eabi_attribute 18, 4
  13              		.thumb
  14              		.syntax unified
  15              		.file	"stepperMotor.c"
  16              		.text
  17              	.Ltext0:
  18              		.cfi_sections	.debug_frame
  19              		.section	.text.StepMotor,"ax",%progbits
  20              		.align	2
  21              		.global	StepMotor
  22              		.thumb
  23              		.thumb_func
  24              		.type	StepMotor, %function
  25              	StepMotor:
  26              	.LFB63:
  27              		.file 1 "stepperMotor.c"
   1:stepperMotor.c **** #include "project.h"
   2:stepperMotor.c **** #include "stepperMotor.h"
   3:stepperMotor.c **** #include <stdlib.h>
   4:stepperMotor.c **** 
   5:stepperMotor.c **** #define STEP_PIN_STEP    StepPin_Write(1)
   6:stepperMotor.c **** #define STEP_PIN_RESET   StepPin_Write(0)
   7:stepperMotor.c **** #define DIR_PIN_FORWARD  DirPin_Write(1)
   8:stepperMotor.c **** #define DIR_PIN_BACKWARD DirPin_Write(0)
   9:stepperMotor.c **** 
  10:stepperMotor.c **** #define MAX_POSITION 100
  11:stepperMotor.c **** #define MIN_POSITION -100
  12:stepperMotor.c **** #define STEPS_PER_REVOLUTION 200
  13:stepperMotor.c **** 
  14:stepperMotor.c **** int currentPosition = 0;
  15:stepperMotor.c **** 
  16:stepperMotor.c **** void StepMotor(int steps, int direction)
  17:stepperMotor.c **** {
  28              		.loc 1 17 0
  29              		.cfi_startproc
  30              		@ args = 0, pretend = 0, frame = 0
  31              		@ frame_needed = 0, uses_anonymous_args = 0
  32              	.LVL0:
  33 0000 38B5     		push	{r3, r4, r5, lr}
  34              		.cfi_def_cfa_offset 16
  35              		.cfi_offset 3, -16
  36              		.cfi_offset 4, -12
  37              		.cfi_offset 5, -8
  38              		.cfi_offset 14, -4
  39 0002 0546     		mov	r5, r0
  18:stepperMotor.c ****     if (direction > 0)
ARM GAS  C:\Users\OTTOSE~1\AppData\Local\Temp\ccFpkE0V.s 			page 2


  40              		.loc 1 18 0
  41 0004 0029     		cmp	r1, #0
  42 0006 04DD     		ble	.L2
  19:stepperMotor.c ****         DIR_PIN_FORWARD;
  43              		.loc 1 19 0
  44 0008 0120     		movs	r0, #1
  45              	.LVL1:
  46 000a FFF7FEFF 		bl	DirPin_Write
  47              	.LVL2:
  48              	.L4:
  17:stepperMotor.c ****     if (direction > 0)
  49              		.loc 1 17 0 discriminator 1
  50 000e 0024     		movs	r4, #0
  51 0010 12E0     		b	.L3
  52              	.LVL3:
  53              	.L2:
  20:stepperMotor.c ****     else
  21:stepperMotor.c ****         DIR_PIN_BACKWARD;
  54              		.loc 1 21 0
  55 0012 0020     		movs	r0, #0
  56              	.LVL4:
  57 0014 FFF7FEFF 		bl	DirPin_Write
  58              	.LVL5:
  59 0018 F9E7     		b	.L4
  60              	.LVL6:
  61              	.L5:
  62              	.LBB2:
  22:stepperMotor.c ****     
  23:stepperMotor.c ****     for (int i = 0; i < steps; i++)
  24:stepperMotor.c ****     {
  25:stepperMotor.c ****         STEP_PIN_STEP;
  63              		.loc 1 25 0 discriminator 3
  64 001a 0120     		movs	r0, #1
  65 001c FFF7FEFF 		bl	StepPin_Write
  66              	.LVL7:
  26:stepperMotor.c ****         CyDelayUs(1500); // 1500 us HIGH
  67              		.loc 1 26 0 discriminator 3
  68 0020 40F2DC50 		movw	r0, #1500
  69 0024 FFF7FEFF 		bl	CyDelayUs
  70              	.LVL8:
  27:stepperMotor.c ****         STEP_PIN_RESET;
  71              		.loc 1 27 0 discriminator 3
  72 0028 0020     		movs	r0, #0
  73 002a FFF7FEFF 		bl	StepPin_Write
  74              	.LVL9:
  28:stepperMotor.c ****         CyDelayUs(1500); // 1500 us LOW
  75              		.loc 1 28 0 discriminator 3
  76 002e 40F2DC50 		movw	r0, #1500
  77 0032 FFF7FEFF 		bl	CyDelayUs
  78              	.LVL10:
  23:stepperMotor.c ****     {
  79              		.loc 1 23 0 discriminator 3
  80 0036 0134     		adds	r4, r4, #1
  81              	.LVL11:
  82              	.L3:
  23:stepperMotor.c ****     {
  83              		.loc 1 23 0 is_stmt 0 discriminator 1
ARM GAS  C:\Users\OTTOSE~1\AppData\Local\Temp\ccFpkE0V.s 			page 3


  84 0038 AC42     		cmp	r4, r5
  85 003a EEDB     		blt	.L5
  86              	.LBE2:
  29:stepperMotor.c ****     }
  30:stepperMotor.c **** }
  87              		.loc 1 30 0 is_stmt 1
  88 003c 38BD     		pop	{r3, r4, r5, pc}
  89              		.cfi_endproc
  90              	.LFE63:
  91              		.size	StepMotor, .-StepMotor
  92 003e 00BF     		.section	.text.GoToPosition,"ax",%progbits
  93              		.align	2
  94              		.global	GoToPosition
  95              		.thumb
  96              		.thumb_func
  97              		.type	GoToPosition, %function
  98              	GoToPosition:
  99              	.LFB64:
  31:stepperMotor.c **** 
  32:stepperMotor.c **** void GoToPosition(int targetPosition)
  33:stepperMotor.c **** {
 100              		.loc 1 33 0
 101              		.cfi_startproc
 102              		@ args = 0, pretend = 0, frame = 0
 103              		@ frame_needed = 0, uses_anonymous_args = 0
 104              	.LVL12:
 105 0000 10B5     		push	{r4, lr}
 106              		.cfi_def_cfa_offset 8
 107              		.cfi_offset 4, -8
 108              		.cfi_offset 14, -4
 109 0002 0446     		mov	r4, r0
  34:stepperMotor.c ****     if (targetPosition > MAX_POSITION)
 110              		.loc 1 34 0
 111 0004 6428     		cmp	r0, #100
 112 0006 00DD     		ble	.L8
  35:stepperMotor.c ****         targetPosition = MAX_POSITION;
 113              		.loc 1 35 0
 114 0008 6424     		movs	r4, #100
 115              	.L8:
 116              	.LVL13:
  36:stepperMotor.c ****     if (targetPosition < MIN_POSITION)
 117              		.loc 1 36 0
 118 000a 14F1640F 		cmn	r4, #100
 119 000e 01DA     		bge	.L9
  37:stepperMotor.c ****         targetPosition = MIN_POSITION;
 120              		.loc 1 37 0
 121 0010 6FF06304 		mvn	r4, #99
 122              	.LVL14:
 123              	.L9:
  38:stepperMotor.c ****     
  39:stepperMotor.c ****     int stepsToMove = (targetPosition - currentPosition);
 124              		.loc 1 39 0
 125 0014 074B     		ldr	r3, .L14
 126 0016 1868     		ldr	r0, [r3]
 127              	.LVL15:
  40:stepperMotor.c ****     
  41:stepperMotor.c ****     if (stepsToMove != 0)
ARM GAS  C:\Users\OTTOSE~1\AppData\Local\Temp\ccFpkE0V.s 			page 4


 128              		.loc 1 41 0
 129 0018 201A     		subs	r0, r4, r0
 130              	.LVL16:
 131 001a 0AD0     		beq	.L7
 132              	.LVL17:
 133              	.LBB3:
  42:stepperMotor.c ****     {
  43:stepperMotor.c ****         int direction = (stepsToMove > 0) ? 1 : 0;
  44:stepperMotor.c ****         StepMotor(abs(stepsToMove), direction);
 134              		.loc 1 44 0
 135 001c 0028     		cmp	r0, #0
 136 001e D4BF     		ite	le
 137 0020 0021     		movle	r1, #0
 138 0022 0121     		movgt	r1, #1
 139 0024 0028     		cmp	r0, #0
 140 0026 B8BF     		it	lt
 141 0028 4042     		rsblt	r0, r0, #0
 142              	.LVL18:
 143 002a FFF7FEFF 		bl	StepMotor
 144              	.LVL19:
  45:stepperMotor.c ****         currentPosition = targetPosition;
 145              		.loc 1 45 0
 146 002e 014B     		ldr	r3, .L14
 147 0030 1C60     		str	r4, [r3]
 148              	.L7:
 149 0032 10BD     		pop	{r4, pc}
 150              	.LVL20:
 151              	.L15:
 152              		.align	2
 153              	.L14:
 154 0034 00000000 		.word	.LANCHOR0
 155              	.LBE3:
 156              		.cfi_endproc
 157              	.LFE64:
 158              		.size	GoToPosition, .-GoToPosition
 159              		.global	currentPosition
 160              		.bss
 161              		.align	2
 162              		.set	.LANCHOR0,. + 0
 163              		.type	currentPosition, %object
 164              		.size	currentPosition, 4
 165              	currentPosition:
 166 0000 00000000 		.space	4
 167              		.text
 168              	.Letext0:
 169              		.file 2 "c:\\program files (x86)\\cypress\\psoc creator\\4.4\\psoc creator\\import\\gnu\\arm\\5.4.
 170              		.file 3 "c:\\program files (x86)\\cypress\\psoc creator\\4.4\\psoc creator\\import\\gnu\\arm\\5.4.
 171              		.file 4 "Generated_Source\\PSoC5/core_cm3.h"
 172              		.file 5 "Generated_Source\\PSoC5/StepPin.h"
 173              		.file 6 "Generated_Source\\PSoC5/CyLib.h"
 174              		.file 7 "Generated_Source\\PSoC5/DirPin.h"