ARM GAS  C:\Users\farpe\AppData\Local\Temp\ccEtsOC1.s 			page 1


   1              		.syntax unified
   2              		.cpu cortex-m3
   3              		.fpu softvfp
   4              		.eabi_attribute 20, 1
   5              		.eabi_attribute 21, 1
   6              		.eabi_attribute 23, 3
   7              		.eabi_attribute 24, 1
   8              		.eabi_attribute 25, 1
   9              		.eabi_attribute 26, 1
  10              		.eabi_attribute 30, 1
  11              		.eabi_attribute 34, 1
  12              		.eabi_attribute 18, 4
  13              		.thumb
  14              		.syntax unified
  15              		.file	"UART_handler.c"
  16              		.text
  17              	.Ltext0:
  18              		.cfi_sections	.debug_frame
  19              		.section	.text.uartHandler_init,"ax",%progbits
  20              		.align	2
  21              		.global	uartHandler_init
  22              		.thumb
  23              		.thumb_func
  24              		.type	uartHandler_init, %function
  25              	uartHandler_init:
  26              	.LFB64:
  27              		.file 1 "UART_handler.c"
   1:UART_handler.c **** #include "UART_handler.h"
   2:UART_handler.c **** #include "motor_control.h"
   3:UART_handler.c **** #include "shootVarHandler.h"
   4:UART_handler.c **** #include <stdio.h>
   5:UART_handler.c **** #include <string.h>
   6:UART_handler.c **** 
   7:UART_handler.c **** static shootVarHandler* shootRef = NULL;  // Pointer to shared object
   8:UART_handler.c **** 
   9:UART_handler.c **** void uartHandler_init(shootVarHandler* handler) {
  28              		.loc 1 9 0
  29              		.cfi_startproc
  30              		@ args = 0, pretend = 0, frame = 0
  31              		@ frame_needed = 0, uses_anonymous_args = 0
  32              		@ link register save eliminated.
  33              	.LVL0:
  10:UART_handler.c ****     shootRef = handler;
  34              		.loc 1 10 0
  35 0000 014B     		ldr	r3, .L2
  36 0002 1860     		str	r0, [r3]
  37 0004 7047     		bx	lr
  38              	.L3:
  39 0006 00BF     		.align	2
  40              	.L2:
  41 0008 00000000 		.word	.LANCHOR0
  42              		.cfi_endproc
  43              	.LFE64:
  44              		.size	uartHandler_init, .-uartHandler_init
  45              		.section	.text.ISR_UART_rx_handler_BT,"ax",%progbits
  46              		.align	2
  47              		.global	ISR_UART_rx_handler_BT
ARM GAS  C:\Users\farpe\AppData\Local\Temp\ccEtsOC1.s 			page 2


  48              		.thumb
  49              		.thumb_func
  50              		.type	ISR_UART_rx_handler_BT, %function
  51              	ISR_UART_rx_handler_BT:
  52              	.LFB65:
  11:UART_handler.c **** }
  12:UART_handler.c **** // UART RX interrupt service routine for Bluetooth
  13:UART_handler.c **** CY_ISR(ISR_UART_rx_handler_BT)
  14:UART_handler.c **** {
  53              		.loc 1 14 0
  54              		.cfi_startproc
  55              		@ args = 0, pretend = 0, frame = 168
  56              		@ frame_needed = 0, uses_anonymous_args = 0
  57 0000 10B5     		push	{r4, lr}
  58              		.cfi_def_cfa_offset 8
  59              		.cfi_offset 4, -8
  60              		.cfi_offset 14, -4
  61 0002 ACB0     		sub	sp, sp, #176
  62              		.cfi_def_cfa_offset 184
  15:UART_handler.c ****     static char btBuffer[50];     // Buffer for the incoming string
  16:UART_handler.c ****     static uint8_t index = 0;
  17:UART_handler.c ****     int temp1, temp2, tempBool;
  18:UART_handler.c ****     char tempMode;
  19:UART_handler.c ****     char message[150];
  20:UART_handler.c ****     
  21:UART_handler.c ****     int8_t VAR1, VAR2;
  22:UART_handler.c **** 
  23:UART_handler.c ****     while (UART_BT_GetRxBufferSize() > 0)
  63              		.loc 1 23 0
  64 0004 5EE0     		b	.L5
  65              	.L11:
  66              	.LBB2:
  24:UART_handler.c ****     {
  25:UART_handler.c ****         char byteReceived = UART_BT_ReadRxData();
  67              		.loc 1 25 0
  68 0006 FFF7FEFF 		bl	UART_BT_ReadRxData
  69              	.LVL1:
  26:UART_handler.c **** 
  27:UART_handler.c ****         // Store the byte if we have room
  28:UART_handler.c ****         if (index < sizeof(btBuffer) - 1)
  70              		.loc 1 28 0
  71 000a 314B     		ldr	r3, .L13
  72 000c 1B79     		ldrb	r3, [r3, #4]	@ zero_extendqisi2
  73 000e 302B     		cmp	r3, #48
  74 0010 04D8     		bhi	.L6
  29:UART_handler.c ****         {
  30:UART_handler.c ****             btBuffer[index++] = byteReceived;
  75              		.loc 1 30 0
  76 0012 2F4A     		ldr	r2, .L13
  77 0014 591C     		adds	r1, r3, #1
  78 0016 1171     		strb	r1, [r2, #4]
  79 0018 1344     		add	r3, r3, r2
  80 001a 1872     		strb	r0, [r3, #8]
  81              	.L6:
  31:UART_handler.c ****         }
  32:UART_handler.c **** 
  33:UART_handler.c ****         // Message is considered done if we get \n, \r, or if buffer is full
ARM GAS  C:\Users\farpe\AppData\Local\Temp\ccEtsOC1.s 			page 3


  34:UART_handler.c ****         if (byteReceived == '\n' || byteReceived == '\r' || index >= 49)
  82              		.loc 1 34 0
  83 001c 0A28     		cmp	r0, #10
  84 001e 05D0     		beq	.L7
  85              		.loc 1 34 0 is_stmt 0 discriminator 1
  86 0020 0D28     		cmp	r0, #13
  87 0022 03D0     		beq	.L7
  88              		.loc 1 34 0 discriminator 2
  89 0024 2A4B     		ldr	r3, .L13
  90 0026 1B79     		ldrb	r3, [r3, #4]	@ zero_extendqisi2
  91 0028 302B     		cmp	r3, #48
  92 002a 3FD9     		bls	.L8
  93              	.L7:
  35:UART_handler.c ****         {
  36:UART_handler.c ****             btBuffer[index] = '\0';  // Null-terminate the string
  94              		.loc 1 36 0 is_stmt 1
  95 002c 2848     		ldr	r0, .L13
  96              	.LVL2:
  97 002e 0379     		ldrb	r3, [r0, #4]	@ zero_extendqisi2
  98 0030 0344     		add	r3, r3, r0
  99 0032 0022     		movs	r2, #0
 100 0034 1A72     		strb	r2, [r3, #8]
  37:UART_handler.c **** 
  38:UART_handler.c ****             snprintf(message, sizeof(message), "\r\n[BT Response] %s\r\n", btBuffer);
 101              		.loc 1 38 0
 102 0036 00F10804 		add	r4, r0, #8
 103 003a 2346     		mov	r3, r4
 104 003c 254A     		ldr	r2, .L13+4
 105 003e 9621     		movs	r1, #150
 106 0040 03A8     		add	r0, sp, #12
 107 0042 FFF7FEFF 		bl	snprintf
 108              	.LVL3:
  39:UART_handler.c ****             UART_PC_PutString(message);
 109              		.loc 1 39 0
 110 0046 03A8     		add	r0, sp, #12
 111 0048 FFF7FEFF 		bl	UART_PC_PutString
 112              	.LVL4:
  40:UART_handler.c **** 
  41:UART_handler.c ****             // Try to parse the format: (e.g.) "-39,45"
  42:UART_handler.c ****             if (sscanf(btBuffer, "%c,%d,%d,%d", &tempMode, &temp1, &temp2, &tempBool) == 4)
 113              		.loc 1 42 0
 114 004c 29AB     		add	r3, sp, #164
 115 004e 0193     		str	r3, [sp, #4]
 116 0050 2AAB     		add	r3, sp, #168
 117 0052 0093     		str	r3, [sp]
 118 0054 2BAB     		add	r3, sp, #172
 119 0056 0DF1A302 		add	r2, sp, #163
 120 005a 1F49     		ldr	r1, .L13+8
 121 005c 2046     		mov	r0, r4
 122 005e FFF7FEFF 		bl	sscanf
 123              	.LVL5:
 124 0062 0428     		cmp	r0, #4
 125 0064 2BD1     		bne	.L9
  43:UART_handler.c ****             {
  44:UART_handler.c ****                 
  45:UART_handler.c ****                 
  46:UART_handler.c ****                 if (tempMode == '$'){
ARM GAS  C:\Users\farpe\AppData\Local\Temp\ccEtsOC1.s 			page 4


 126              		.loc 1 46 0
 127 0066 9DF8A330 		ldrb	r3, [sp, #163]	@ zero_extendqisi2
 128 006a 242B     		cmp	r3, #36
 129 006c 08D1     		bne	.L10
 130              	.LVL6:
  47:UART_handler.c ****                 VAR1 = (int8_t)temp1;
  48:UART_handler.c ****                 VAR2 = (int8_t)temp2;
 131              		.loc 1 48 0
 132 006e 9DF9A840 		ldrsb	r4, [sp, #168]
 133              	.LVL7:
  49:UART_handler.c ****                 set_speedA(VAR1);
 134              		.loc 1 49 0
 135 0072 9DF9AC00 		ldrsb	r0, [sp, #172]
 136 0076 FFF7FEFF 		bl	set_speedA
 137              	.LVL8:
  50:UART_handler.c ****                 set_speedB(VAR2);
 138              		.loc 1 50 0
 139 007a 2046     		mov	r0, r4
 140 007c FFF7FEFF 		bl	set_speedB
 141              	.LVL9:
 142              	.L10:
  51:UART_handler.c ****                     
  52:UART_handler.c ****                 }
  53:UART_handler.c ****                 if (tempMode == '@' && shootRef != NULL) {
 143              		.loc 1 53 0
 144 0080 9DF8A330 		ldrb	r3, [sp, #163]	@ zero_extendqisi2
 145 0084 402B     		cmp	r3, #64
 146 0086 1AD1     		bne	.L9
 147              		.loc 1 53 0 is_stmt 0 discriminator 1
 148 0088 114B     		ldr	r3, .L13
 149 008a 1B68     		ldr	r3, [r3]
 150 008c BBB1     		cbz	r3, .L9
  54:UART_handler.c ****                     set_speedA(0);
 151              		.loc 1 54 0 is_stmt 1
 152 008e 0020     		movs	r0, #0
 153 0090 FFF7FEFF 		bl	set_speedA
 154              	.LVL10:
  55:UART_handler.c ****                     set_speedB(0);
 155              		.loc 1 55 0
 156 0094 0020     		movs	r0, #0
 157 0096 FFF7FEFF 		bl	set_speedB
 158              	.LVL11:
  56:UART_handler.c **** 
  57:UART_handler.c ****                     shootRef->desiredPos1 = temp1;
 159              		.loc 1 57 0
 160 009a 0D4B     		ldr	r3, .L13
 161 009c 1B68     		ldr	r3, [r3]
 162 009e 2B9A     		ldr	r2, [sp, #172]
 163 00a0 1A60     		str	r2, [r3]
  58:UART_handler.c ****                     shootRef->desiredPos2 = temp2;
 164              		.loc 1 58 0
 165 00a2 2A9A     		ldr	r2, [sp, #168]
 166 00a4 5A60     		str	r2, [r3, #4]
  59:UART_handler.c ****                     shootRef->shootMode = tempBool;
 167              		.loc 1 59 0
 168 00a6 299A     		ldr	r2, [sp, #164]
 169 00a8 9A60     		str	r2, [r3, #8]
ARM GAS  C:\Users\farpe\AppData\Local\Temp\ccEtsOC1.s 			page 5


 170 00aa 08E0     		b	.L9
 171              	.LVL12:
 172              	.L8:
  60:UART_handler.c ****                 }
  61:UART_handler.c ****                 
  62:UART_handler.c ****                     
  63:UART_handler.c ****             }
  64:UART_handler.c ****                 
  65:UART_handler.c ****                 
  66:UART_handler.c ****                 
  67:UART_handler.c ****         }
  68:UART_handler.c ****             else
  69:UART_handler.c ****             {
  70:UART_handler.c ****                 // Combine parse error message into one formatted string
  71:UART_handler.c ****                 snprintf(message, sizeof(message), "\r\nParse error. Content of BT buffer: %s\r\n",
 173              		.loc 1 71 0
 174 00ac 0B4B     		ldr	r3, .L13+12
 175 00ae 0C4A     		ldr	r2, .L13+16
 176 00b0 9621     		movs	r1, #150
 177 00b2 03A8     		add	r0, sp, #12
 178              	.LVL13:
 179 00b4 FFF7FEFF 		bl	snprintf
 180              	.LVL14:
  72:UART_handler.c ****                 UART_PC_PutString(message);
 181              		.loc 1 72 0
 182 00b8 03A8     		add	r0, sp, #12
 183 00ba FFF7FEFF 		bl	UART_PC_PutString
 184              	.LVL15:
 185              	.L9:
  73:UART_handler.c ****             }
  74:UART_handler.c **** 
  75:UART_handler.c ****             index = 0; // Reset buffer for next message
 186              		.loc 1 75 0
 187 00be 0022     		movs	r2, #0
 188 00c0 034B     		ldr	r3, .L13
 189 00c2 1A71     		strb	r2, [r3, #4]
 190              	.L5:
 191              	.LBE2:
  23:UART_handler.c ****     {
 192              		.loc 1 23 0
 193 00c4 FFF7FEFF 		bl	UART_BT_GetRxBufferSize
 194              	.LVL16:
 195 00c8 0028     		cmp	r0, #0
 196 00ca 9CD1     		bne	.L11
  76:UART_handler.c ****         }
  77:UART_handler.c **** }
 197              		.loc 1 77 0
 198 00cc 2CB0     		add	sp, sp, #176
 199              		.cfi_def_cfa_offset 8
 200              		@ sp needed
 201 00ce 10BD     		pop	{r4, pc}
 202              	.L14:
 203              		.align	2
 204              	.L13:
 205 00d0 00000000 		.word	.LANCHOR0
 206 00d4 00000000 		.word	.LC0
 207 00d8 18000000 		.word	.LC1
ARM GAS  C:\Users\farpe\AppData\Local\Temp\ccEtsOC1.s 			page 6


 208 00dc 08000000 		.word	.LANCHOR0+8
 209 00e0 24000000 		.word	.LC2
 210              		.cfi_endproc
 211              	.LFE65:
 212              		.size	ISR_UART_rx_handler_BT, .-ISR_UART_rx_handler_BT
 213              		.section	.text.handleByteReceived,"ax",%progbits
 214              		.align	2
 215              		.global	handleByteReceived
 216              		.thumb
 217              		.thumb_func
 218              		.type	handleByteReceived, %function
 219              	handleByteReceived:
 220              	.LFB67:
  78:UART_handler.c **** 
  79:UART_handler.c **** 
  80:UART_handler.c **** 
  81:UART_handler.c **** // UART RX interrupt service routine for PC
  82:UART_handler.c **** CY_ISR(ISR_UART_rx_handler_PC)
  83:UART_handler.c **** {
  84:UART_handler.c ****     uint8_t bytesToRead = UART_PC_GetRxBufferSize();
  85:UART_handler.c ****     while (bytesToRead > 0)
  86:UART_handler.c ****     {
  87:UART_handler.c ****         uint8_t byteReceived = UART_PC_ReadRxData();
  88:UART_handler.c ****         UART_PC_WriteTxData(byteReceived); // Echo back the received byte
  89:UART_handler.c **** 
  90:UART_handler.c ****         handleByteReceived(byteReceived);
  91:UART_handler.c ****         
  92:UART_handler.c ****         bytesToRead--;
  93:UART_handler.c ****     }
  94:UART_handler.c **** }
  95:UART_handler.c **** 
  96:UART_handler.c **** void handleByteReceived(uint8_t byteReceived)
  97:UART_handler.c **** {
 221              		.loc 1 97 0
 222              		.cfi_startproc
 223              		@ args = 0, pretend = 0, frame = 40
 224              		@ frame_needed = 0, uses_anonymous_args = 0
 225              	.LVL17:
 226 0000 10B5     		push	{r4, lr}
 227              		.cfi_def_cfa_offset 8
 228              		.cfi_offset 4, -8
 229              		.cfi_offset 14, -4
 230 0002 8AB0     		sub	sp, sp, #40
 231              		.cfi_def_cfa_offset 48
 232 0004 0446     		mov	r4, r0
  98:UART_handler.c ****     // A static variable to keep track of the current speed.
  99:UART_handler.c ****     // Valid range is from -PWM_MAX_DUTY to PWM_MAX_DUTY.
 100:UART_handler.c ****     static int8_t currentSpeed = 0;
 101:UART_handler.c ****     char command_address[] = "AT+MAC\r\n";
 233              		.loc 1 101 0
 234 0006 5A4A     		ldr	r2, .L30
 235 0008 07AB     		add	r3, sp, #28
 236 000a 07CA     		ldmia	r2, {r0, r1, r2}
 237              	.LVL18:
 238 000c 03C3     		stmia	r3!, {r0, r1}
 239 000e 1A70     		strb	r2, [r3]
 102:UART_handler.c ****     char command_baud[] = "AT+BAUD\r\n";
ARM GAS  C:\Users\farpe\AppData\Local\Temp\ccEtsOC1.s 			page 7


 240              		.loc 1 102 0
 241 0010 584A     		ldr	r2, .L30+4
 242 0012 04AB     		add	r3, sp, #16
 243 0014 07CA     		ldmia	r2, {r0, r1, r2}
 244 0016 03C3     		stmia	r3!, {r0, r1}
 245 0018 1A80     		strh	r2, [r3]	@ movhi
 103:UART_handler.c ****     char command_status[] = "AT+STAT\r\n";
 246              		.loc 1 103 0
 247 001a 574A     		ldr	r2, .L30+8
 248 001c 01AB     		add	r3, sp, #4
 249 001e 07CA     		ldmia	r2, {r0, r1, r2}
 250 0020 03C3     		stmia	r3!, {r0, r1}
 251 0022 1A80     		strh	r2, [r3]	@ movhi
 104:UART_handler.c ****     
 105:UART_handler.c ****     switch(byteReceived)
 252              		.loc 1 105 0
 253 0024 A4F13000 		sub	r0, r4, #48
 254 0028 4428     		cmp	r0, #68
 255 002a 00F29E80 		bhi	.L15
 256 002e DFE800F0 		tbb	[pc, r0]
 257              	.L18:
 258 0032 7A       		.byte	(.L17-.L18)/2
 259 0033 23       		.byte	(.L19-.L18)/2
 260 0034 4D       		.byte	(.L20-.L18)/2
 261 0035 9C       		.byte	(.L15-.L18)/2
 262 0036 9C       		.byte	(.L15-.L18)/2
 263 0037 9C       		.byte	(.L15-.L18)/2
 264 0038 9C       		.byte	(.L15-.L18)/2
 265 0039 9C       		.byte	(.L15-.L18)/2
 266 003a 9C       		.byte	(.L15-.L18)/2
 267 003b 9C       		.byte	(.L15-.L18)/2
 268 003c 9C       		.byte	(.L15-.L18)/2
 269 003d 9C       		.byte	(.L15-.L18)/2
 270 003e 9C       		.byte	(.L15-.L18)/2
 271 003f 9C       		.byte	(.L15-.L18)/2
 272 0040 9C       		.byte	(.L15-.L18)/2
 273 0041 9C       		.byte	(.L15-.L18)/2
 274 0042 9C       		.byte	(.L15-.L18)/2
 275 0043 9C       		.byte	(.L15-.L18)/2
 276 0044 9C       		.byte	(.L15-.L18)/2
 277 0045 9C       		.byte	(.L15-.L18)/2
 278 0046 9C       		.byte	(.L15-.L18)/2
 279 0047 9C       		.byte	(.L15-.L18)/2
 280 0048 9C       		.byte	(.L15-.L18)/2
 281 0049 9C       		.byte	(.L15-.L18)/2
 282 004a 9C       		.byte	(.L15-.L18)/2
 283 004b 9C       		.byte	(.L15-.L18)/2
 284 004c 9C       		.byte	(.L15-.L18)/2
 285 004d 9C       		.byte	(.L15-.L18)/2
 286 004e 9C       		.byte	(.L15-.L18)/2
 287 004f 9C       		.byte	(.L15-.L18)/2
 288 0050 9C       		.byte	(.L15-.L18)/2
 289 0051 9C       		.byte	(.L15-.L18)/2
 290 0052 9C       		.byte	(.L15-.L18)/2
 291 0053 9C       		.byte	(.L15-.L18)/2
 292 0054 9C       		.byte	(.L15-.L18)/2
 293 0055 9C       		.byte	(.L15-.L18)/2
ARM GAS  C:\Users\farpe\AppData\Local\Temp\ccEtsOC1.s 			page 8


 294 0056 9C       		.byte	(.L15-.L18)/2
 295 0057 9C       		.byte	(.L15-.L18)/2
 296 0058 9C       		.byte	(.L15-.L18)/2
 297 0059 9C       		.byte	(.L15-.L18)/2
 298 005a 9C       		.byte	(.L15-.L18)/2
 299 005b 9C       		.byte	(.L15-.L18)/2
 300 005c 9C       		.byte	(.L15-.L18)/2
 301 005d 9C       		.byte	(.L15-.L18)/2
 302 005e 9C       		.byte	(.L15-.L18)/2
 303 005f 9C       		.byte	(.L15-.L18)/2
 304 0060 9C       		.byte	(.L15-.L18)/2
 305 0061 9C       		.byte	(.L15-.L18)/2
 306 0062 9C       		.byte	(.L15-.L18)/2
 307 0063 81       		.byte	(.L21-.L18)/2
 308 0064 88       		.byte	(.L22-.L18)/2
 309 0065 9C       		.byte	(.L15-.L18)/2
 310 0066 9C       		.byte	(.L15-.L18)/2
 311 0067 9C       		.byte	(.L15-.L18)/2
 312 0068 9C       		.byte	(.L15-.L18)/2
 313 0069 9C       		.byte	(.L15-.L18)/2
 314 006a 9C       		.byte	(.L15-.L18)/2
 315 006b 9C       		.byte	(.L15-.L18)/2
 316 006c 9C       		.byte	(.L15-.L18)/2
 317 006d 9C       		.byte	(.L15-.L18)/2
 318 006e 9C       		.byte	(.L15-.L18)/2
 319 006f 9C       		.byte	(.L15-.L18)/2
 320 0070 9C       		.byte	(.L15-.L18)/2
 321 0071 9C       		.byte	(.L15-.L18)/2
 322 0072 9C       		.byte	(.L15-.L18)/2
 323 0073 9C       		.byte	(.L15-.L18)/2
 324 0074 9C       		.byte	(.L15-.L18)/2
 325 0075 8F       		.byte	(.L23-.L18)/2
 326 0076 96       		.byte	(.L24-.L18)/2
 327 0077 00       		.p2align 1
 328              	.L19:
 106:UART_handler.c ****     {
 107:UART_handler.c ****         case '1':
 108:UART_handler.c ****             // Increase speed by 5, ensuring we do not exceed PWM_MAX_DUTY.
 109:UART_handler.c ****             if (currentSpeed < PWM_MAX_DUTY)
 329              		.loc 1 109 0
 330 0078 404B     		ldr	r3, .L30+12
 331 007a 93F93A30 		ldrsb	r3, [r3, #58]
 332 007e 312B     		cmp	r3, #49
 333 0080 20DC     		bgt	.L25
 110:UART_handler.c ****             {
 111:UART_handler.c ****                 UART_PC_PutString("Increase speed\r\n");
 334              		.loc 1 111 0
 335 0082 3F48     		ldr	r0, .L30+16
 336 0084 FFF7FEFF 		bl	UART_PC_PutString
 337              	.LVL19:
 112:UART_handler.c ****                 currentSpeed += 5;
 338              		.loc 1 112 0
 339 0088 3C4A     		ldr	r2, .L30+12
 340 008a 92F83A30 		ldrb	r3, [r2, #58]	@ zero_extendqisi2
 341 008e 0533     		adds	r3, r3, #5
 342 0090 5BB2     		sxtb	r3, r3
 343 0092 82F83A30 		strb	r3, [r2, #58]
ARM GAS  C:\Users\farpe\AppData\Local\Temp\ccEtsOC1.s 			page 9


 113:UART_handler.c ****                 if (currentSpeed > PWM_MAX_DUTY)
 344              		.loc 1 113 0
 345 0096 322B     		cmp	r3, #50
 346 0098 03DD     		ble	.L26
 114:UART_handler.c ****                 {
 115:UART_handler.c ****                     currentSpeed = PWM_MAX_DUTY;
 347              		.loc 1 115 0
 348 009a 3222     		movs	r2, #50
 349 009c 374B     		ldr	r3, .L30+12
 350 009e 83F83A20 		strb	r2, [r3, #58]
 351              	.L26:
 116:UART_handler.c ****                 }
 117:UART_handler.c ****                 set_speedA(currentSpeed);
 352              		.loc 1 117 0
 353 00a2 364C     		ldr	r4, .L30+12
 354 00a4 94F93A00 		ldrsb	r0, [r4, #58]
 355 00a8 FFF7FEFF 		bl	set_speedA
 356              	.LVL20:
 118:UART_handler.c ****                 set_speedB(currentSpeed);
 357              		.loc 1 118 0
 358 00ac 94F93A00 		ldrsb	r0, [r4, #58]
 359 00b0 FFF7FEFF 		bl	set_speedB
 360              	.LVL21:
 119:UART_handler.c ****                 if (currentSpeed == PWM_MAX_DUTY)
 361              		.loc 1 119 0
 362 00b4 94F93A30 		ldrsb	r3, [r4, #58]
 363 00b8 322B     		cmp	r3, #50
 364 00ba 56D1     		bne	.L15
 120:UART_handler.c ****                 {
 121:UART_handler.c ****                     UART_PC_PutString("Max forward speed reached\r\n");
 365              		.loc 1 121 0
 366 00bc 3148     		ldr	r0, .L30+20
 367 00be FFF7FEFF 		bl	UART_PC_PutString
 368              	.LVL22:
 369 00c2 52E0     		b	.L15
 370              	.L25:
 122:UART_handler.c ****                 }
 123:UART_handler.c ****             }
 124:UART_handler.c ****             else
 125:UART_handler.c ****             {
 126:UART_handler.c ****                 UART_PC_PutString("Already at max forward speed\r\n");
 371              		.loc 1 126 0
 372 00c4 3048     		ldr	r0, .L30+24
 373 00c6 FFF7FEFF 		bl	UART_PC_PutString
 374              	.LVL23:
 375 00ca 4EE0     		b	.L15
 376              	.L20:
 127:UART_handler.c ****             }
 128:UART_handler.c ****             break;
 129:UART_handler.c ****             
 130:UART_handler.c ****         case '2':
 131:UART_handler.c ****             // Decrease speed by 5, ensuring we do not drop below -PWM_MAX_DUTY.
 132:UART_handler.c ****             if (currentSpeed > -PWM_MAX_DUTY)
 377              		.loc 1 132 0
 378 00cc 2B4B     		ldr	r3, .L30+12
 379 00ce 93F93A30 		ldrsb	r3, [r3, #58]
 380 00d2 13F1310F 		cmn	r3, #49
ARM GAS  C:\Users\farpe\AppData\Local\Temp\ccEtsOC1.s 			page 10


 381 00d6 22DB     		blt	.L27
 133:UART_handler.c ****             {
 134:UART_handler.c ****                 UART_PC_PutString("Decrease speed\r\n");
 382              		.loc 1 134 0
 383 00d8 2C48     		ldr	r0, .L30+28
 384 00da FFF7FEFF 		bl	UART_PC_PutString
 385              	.LVL24:
 135:UART_handler.c ****                 currentSpeed -= 5;
 386              		.loc 1 135 0
 387 00de 274A     		ldr	r2, .L30+12
 388 00e0 92F83A30 		ldrb	r3, [r2, #58]	@ zero_extendqisi2
 389 00e4 053B     		subs	r3, r3, #5
 390 00e6 5BB2     		sxtb	r3, r3
 391 00e8 82F83A30 		strb	r3, [r2, #58]
 136:UART_handler.c ****                 if (currentSpeed < -PWM_MAX_DUTY)
 392              		.loc 1 136 0
 393 00ec 13F1320F 		cmn	r3, #50
 394 00f0 03DA     		bge	.L28
 137:UART_handler.c ****                 {
 138:UART_handler.c ****                     currentSpeed = -PWM_MAX_DUTY;
 395              		.loc 1 138 0
 396 00f2 CE22     		movs	r2, #206
 397 00f4 214B     		ldr	r3, .L30+12
 398 00f6 83F83A20 		strb	r2, [r3, #58]
 399              	.L28:
 139:UART_handler.c ****                 }
 140:UART_handler.c ****                 set_speedA(currentSpeed);
 400              		.loc 1 140 0
 401 00fa 204C     		ldr	r4, .L30+12
 402 00fc 94F93A00 		ldrsb	r0, [r4, #58]
 403 0100 FFF7FEFF 		bl	set_speedA
 404              	.LVL25:
 141:UART_handler.c ****                 set_speedB(currentSpeed);
 405              		.loc 1 141 0
 406 0104 94F93A00 		ldrsb	r0, [r4, #58]
 407 0108 FFF7FEFF 		bl	set_speedB
 408              	.LVL26:
 142:UART_handler.c ****                 if (currentSpeed == -PWM_MAX_DUTY)
 409              		.loc 1 142 0
 410 010c 94F93A30 		ldrsb	r3, [r4, #58]
 411 0110 13F1320F 		cmn	r3, #50
 412 0114 29D1     		bne	.L15
 143:UART_handler.c ****                 {
 144:UART_handler.c ****                     UART_PC_PutString("Max reverse speed reached\r\n");
 413              		.loc 1 144 0
 414 0116 1E48     		ldr	r0, .L30+32
 415 0118 FFF7FEFF 		bl	UART_PC_PutString
 416              	.LVL27:
 417 011c 25E0     		b	.L15
 418              	.L27:
 145:UART_handler.c ****                 }
 146:UART_handler.c ****             }
 147:UART_handler.c ****             else
 148:UART_handler.c ****             {
 149:UART_handler.c ****                 UART_PC_PutString("Already at max reverse speed\r\n");
 419              		.loc 1 149 0
 420 011e 1D48     		ldr	r0, .L30+36
ARM GAS  C:\Users\farpe\AppData\Local\Temp\ccEtsOC1.s 			page 11


 421 0120 FFF7FEFF 		bl	UART_PC_PutString
 422              	.LVL28:
 423 0124 21E0     		b	.L15
 424              	.L17:
 150:UART_handler.c ****             }
 151:UART_handler.c ****             break;
 152:UART_handler.c ****             
 153:UART_handler.c ****         case '0':
 154:UART_handler.c ****             // Stop the motors by setting current speed to 0.
 155:UART_handler.c ****             currentSpeed = 0;
 425              		.loc 1 155 0
 426 0126 0022     		movs	r2, #0
 427 0128 144B     		ldr	r3, .L30+12
 428 012a 83F83A20 		strb	r2, [r3, #58]
 156:UART_handler.c ****             stop();
 429              		.loc 1 156 0
 430 012e FFF7FEFF 		bl	stop
 431              	.LVL29:
 157:UART_handler.c ****             break;
 432              		.loc 1 157 0
 433 0132 1AE0     		b	.L15
 434              	.L21:
 158:UART_handler.c ****         
 159:UART_handler.c ****         case 'a':
 160:UART_handler.c ****            // Sends
 161:UART_handler.c ****             UART_PC_PutString("Sending GetMACAddress command to Bluetooth module\r\n");
 435              		.loc 1 161 0
 436 0134 1848     		ldr	r0, .L30+40
 437 0136 FFF7FEFF 		bl	UART_PC_PutString
 438              	.LVL30:
 162:UART_handler.c ****             UART_BT_PutString(command_address);
 439              		.loc 1 162 0
 440 013a 07A8     		add	r0, sp, #28
 441 013c FFF7FEFF 		bl	UART_BT_PutString
 442              	.LVL31:
 163:UART_handler.c ****             break;
 443              		.loc 1 163 0
 444 0140 13E0     		b	.L15
 445              	.L22:
 164:UART_handler.c ****          
 165:UART_handler.c ****         case 'b':
 166:UART_handler.c ****            // Sends
 167:UART_handler.c ****             UART_PC_PutString("Sending GetBAUDRate command to Bluetooth module\r\n");
 446              		.loc 1 167 0
 447 0142 1648     		ldr	r0, .L30+44
 448 0144 FFF7FEFF 		bl	UART_PC_PutString
 449              	.LVL32:
 168:UART_handler.c ****             UART_BT_PutString(command_baud);
 450              		.loc 1 168 0
 451 0148 04A8     		add	r0, sp, #16
 452 014a FFF7FEFF 		bl	UART_BT_PutString
 453              	.LVL33:
 169:UART_handler.c ****             break;
 454              		.loc 1 169 0
 455 014e 0CE0     		b	.L15
 456              	.L23:
 170:UART_handler.c ****             
ARM GAS  C:\Users\farpe\AppData\Local\Temp\ccEtsOC1.s 			page 12


 171:UART_handler.c ****         case 's':
 172:UART_handler.c ****             UART_PC_PutString("Sending GetStatus command to Bluetooth module\r\n");
 457              		.loc 1 172 0
 458 0150 1348     		ldr	r0, .L30+48
 459 0152 FFF7FEFF 		bl	UART_PC_PutString
 460              	.LVL34:
 173:UART_handler.c ****             UART_BT_PutString(command_status);
 461              		.loc 1 173 0
 462 0156 01A8     		add	r0, sp, #4
 463 0158 FFF7FEFF 		bl	UART_BT_PutString
 464              	.LVL35:
 174:UART_handler.c ****             break;
 465              		.loc 1 174 0
 466 015c 05E0     		b	.L15
 467              	.L24:
 175:UART_handler.c ****         
 176:UART_handler.c ****         case 't':
 177:UART_handler.c ****             // Test
 178:UART_handler.c ****             UART_PC_PutString("Testing for response from BT module\r\n");
 468              		.loc 1 178 0
 469 015e 1148     		ldr	r0, .L30+52
 470 0160 FFF7FEFF 		bl	UART_PC_PutString
 471              	.LVL36:
 179:UART_handler.c ****             UART_BT_PutString("AT+VER\r\n");
 472              		.loc 1 179 0
 473 0164 1048     		ldr	r0, .L30+56
 474 0166 FFF7FEFF 		bl	UART_BT_PutString
 475              	.LVL37:
 476              	.L15:
 180:UART_handler.c ****             break;
 181:UART_handler.c ****             
 182:UART_handler.c ****         default:
 183:UART_handler.c ****             // Do nothing for unrecognized commands.
 184:UART_handler.c ****             break;
 185:UART_handler.c ****     }
 186:UART_handler.c **** }
 477              		.loc 1 186 0
 478 016a 0AB0     		add	sp, sp, #40
 479              		.cfi_def_cfa_offset 8
 480              		@ sp needed
 481 016c 10BD     		pop	{r4, pc}
 482              	.L31:
 483 016e 00BF     		.align	2
 484              	.L30:
 485 0170 BC010000 		.word	.LC3
 486 0174 C8010000 		.word	.LC4
 487 0178 D4010000 		.word	.LC5
 488 017c 00000000 		.word	.LANCHOR0
 489 0180 50000000 		.word	.LC6
 490 0184 64000000 		.word	.LC7
 491 0188 80000000 		.word	.LC8
 492 018c A0000000 		.word	.LC9
 493 0190 B4000000 		.word	.LC10
 494 0194 D0000000 		.word	.LC11
 495 0198 F0000000 		.word	.LC12
 496 019c 24010000 		.word	.LC13
 497 01a0 58010000 		.word	.LC14
ARM GAS  C:\Users\farpe\AppData\Local\Temp\ccEtsOC1.s 			page 13


 498 01a4 88010000 		.word	.LC15
 499 01a8 B0010000 		.word	.LC16
 500              		.cfi_endproc
 501              	.LFE67:
 502              		.size	handleByteReceived, .-handleByteReceived
 503              		.section	.text.ISR_UART_rx_handler_PC,"ax",%progbits
 504              		.align	2
 505              		.global	ISR_UART_rx_handler_PC
 506              		.thumb
 507              		.thumb_func
 508              		.type	ISR_UART_rx_handler_PC, %function
 509              	ISR_UART_rx_handler_PC:
 510              	.LFB66:
  83:UART_handler.c ****     uint8_t bytesToRead = UART_PC_GetRxBufferSize();
 511              		.loc 1 83 0
 512              		.cfi_startproc
 513              		@ args = 0, pretend = 0, frame = 0
 514              		@ frame_needed = 0, uses_anonymous_args = 0
 515 0000 38B5     		push	{r3, r4, r5, lr}
 516              		.cfi_def_cfa_offset 16
 517              		.cfi_offset 3, -16
 518              		.cfi_offset 4, -12
 519              		.cfi_offset 5, -8
 520              		.cfi_offset 14, -4
  84:UART_handler.c ****     while (bytesToRead > 0)
 521              		.loc 1 84 0
 522 0002 FFF7FEFF 		bl	UART_PC_GetRxBufferSize
 523              	.LVL38:
 524 0006 0446     		mov	r4, r0
 525              	.LVL39:
  85:UART_handler.c ****     {
 526              		.loc 1 85 0
 527 0008 09E0     		b	.L33
 528              	.L34:
 529              	.LBB3:
  87:UART_handler.c ****         UART_PC_WriteTxData(byteReceived); // Echo back the received byte
 530              		.loc 1 87 0
 531 000a FFF7FEFF 		bl	UART_PC_ReadRxData
 532              	.LVL40:
 533 000e 0546     		mov	r5, r0
 534              	.LVL41:
  88:UART_handler.c **** 
 535              		.loc 1 88 0
 536 0010 FFF7FEFF 		bl	UART_PC_WriteTxData
 537              	.LVL42:
  90:UART_handler.c ****         
 538              		.loc 1 90 0
 539 0014 2846     		mov	r0, r5
 540 0016 FFF7FEFF 		bl	handleByteReceived
 541              	.LVL43:
  92:UART_handler.c ****     }
 542              		.loc 1 92 0
 543 001a 013C     		subs	r4, r4, #1
 544              	.LVL44:
 545 001c E4B2     		uxtb	r4, r4
 546              	.LVL45:
 547              	.L33:
ARM GAS  C:\Users\farpe\AppData\Local\Temp\ccEtsOC1.s 			page 14


 548              	.LBE3:
  85:UART_handler.c ****     {
 549              		.loc 1 85 0
 550 001e 002C     		cmp	r4, #0
 551 0020 F3D1     		bne	.L34
  94:UART_handler.c **** 
 552              		.loc 1 94 0
 553 0022 38BD     		pop	{r3, r4, r5, pc}
 554              		.cfi_endproc
 555              	.LFE66:
 556              		.size	ISR_UART_rx_handler_PC, .-ISR_UART_rx_handler_PC
 557              		.section	.rodata.str1.4,"aMS",%progbits,1
 558              		.align	2
 559              	.LC0:
 560 0000 0D0A5B42 		.ascii	"\015\012[BT Response] %s\015\012\000"
 560      54205265 
 560      73706F6E 
 560      73655D20 
 560      25730D0A 
 561 0015 000000   		.space	3
 562              	.LC1:
 563 0018 25632C25 		.ascii	"%c,%d,%d,%d\000"
 563      642C2564 
 563      2C256400 
 564              	.LC2:
 565 0024 0D0A5061 		.ascii	"\015\012Parse error. Content of BT buffer: %s\015\012"
 565      72736520 
 565      6572726F 
 565      722E2043 
 565      6F6E7465 
 566 004d 00       		.ascii	"\000"
 567 004e 0000     		.space	2
 568              	.LC6:
 569 0050 496E6372 		.ascii	"Increase speed\015\012\000"
 569      65617365 
 569      20737065 
 569      65640D0A 
 569      00
 570 0061 000000   		.space	3
 571              	.LC7:
 572 0064 4D617820 		.ascii	"Max forward speed reached\015\012\000"
 572      666F7277 
 572      61726420 
 572      73706565 
 572      64207265 
 573              	.LC8:
 574 0080 416C7265 		.ascii	"Already at max forward speed\015\012\000"
 574      61647920 
 574      6174206D 
 574      61782066 
 574      6F727761 
 575 009f 00       		.space	1
 576              	.LC9:
 577 00a0 44656372 		.ascii	"Decrease speed\015\012\000"
 577      65617365 
 577      20737065 
 577      65640D0A 
ARM GAS  C:\Users\farpe\AppData\Local\Temp\ccEtsOC1.s 			page 15


 577      00
 578 00b1 000000   		.space	3
 579              	.LC10:
 580 00b4 4D617820 		.ascii	"Max reverse speed reached\015\012\000"
 580      72657665 
 580      72736520 
 580      73706565 
 580      64207265 
 581              	.LC11:
 582 00d0 416C7265 		.ascii	"Already at max reverse speed\015\012\000"
 582      61647920 
 582      6174206D 
 582      61782072 
 582      65766572 
 583 00ef 00       		.space	1
 584              	.LC12:
 585 00f0 53656E64 		.ascii	"Sending GetMACAddress command to Bluetooth module\015"
 585      696E6720 
 585      4765744D 
 585      41434164 
 585      64726573 
 586 0122 0A00     		.ascii	"\012\000"
 587              	.LC13:
 588 0124 53656E64 		.ascii	"Sending GetBAUDRate command to Bluetooth module\015"
 588      696E6720 
 588      47657442 
 588      41554452 
 588      61746520 
 589 0154 0A00     		.ascii	"\012\000"
 590 0156 0000     		.space	2
 591              	.LC14:
 592 0158 53656E64 		.ascii	"Sending GetStatus command to Bluetooth module\015\012"
 592      696E6720 
 592      47657453 
 592      74617475 
 592      7320636F 
 593 0187 00       		.ascii	"\000"
 594              	.LC15:
 595 0188 54657374 		.ascii	"Testing for response from BT module\015\012\000"
 595      696E6720 
 595      666F7220 
 595      72657370 
 595      6F6E7365 
 596 01ae 0000     		.space	2
 597              	.LC16:
 598 01b0 41542B56 		.ascii	"AT+VER\015\012\000"
 598      45520D0A 
 598      00
 599 01b9 000000   		.space	3
 600              	.LC3:
 601 01bc 41542B4D 		.ascii	"AT+MAC\015\012\000"
 601      41430D0A 
 601      00
 602 01c5 000000   		.space	3
 603              	.LC4:
 604 01c8 41542B42 		.ascii	"AT+BAUD\015\012\000"
 604      4155440D 
ARM GAS  C:\Users\farpe\AppData\Local\Temp\ccEtsOC1.s 			page 16


 604      0A00
 605 01d2 0000     		.space	2
 606              	.LC5:
 607 01d4 41542B53 		.ascii	"AT+STAT\015\012\000"
 607      5441540D 
 607      0A00
 608              		.bss
 609              		.align	2
 610              		.set	.LANCHOR0,. + 0
 611              		.type	shootRef, %object
 612              		.size	shootRef, 4
 613              	shootRef:
 614 0000 00000000 		.space	4
 615              		.type	index.6775, %object
 616              		.size	index.6775, 1
 617              	index.6775:
 618 0004 00       		.space	1
 619 0005 000000   		.space	3
 620              		.type	btBuffer.6774, %object
 621              		.size	btBuffer.6774, 50
 622              	btBuffer.6774:
 623 0008 00000000 		.space	50
 623      00000000 
 623      00000000 
 623      00000000 
 623      00000000 
 624              		.type	currentSpeed.6798, %object
 625              		.size	currentSpeed.6798, 1
 626              	currentSpeed.6798:
 627 003a 00       		.space	1
 628              		.text
 629              	.Letext0:
 630              		.file 2 "c:\\program files (x86)\\cypress\\psoc creator\\4.2\\psoc creator\\import\\gnu\\arm\\5.4.
 631              		.file 3 "c:\\program files (x86)\\cypress\\psoc creator\\4.2\\psoc creator\\import\\gnu\\arm\\5.4.
 632              		.file 4 "shootVarHandler.h"
 633              		.file 5 "Generated_Source\\PSoC5/UART_BT.h"
 634              		.file 6 "c:\\program files (x86)\\cypress\\psoc creator\\4.2\\psoc creator\\import\\gnu\\arm\\5.4.
 635              		.file 7 "Generated_Source\\PSoC5/UART_PC.h"
 636              		.file 8 "motor_control.h"
 637              		.file 9 "Generated_Source\\PSoC5/core_cm3.h"